LIBRARY     SANCTUARYLIB.DLL

EXPORTS
    ??0CheckinPolicyUtil@sanct@@AAE@XZ @1   ; ??0CheckinPolicyUtil@sanct@@AAE@XZ
    ??0Csanctutil@sanct@@QAE@ABV01@@Z @2   ; ??0Csanctutil@sanct@@QAE@ABV01@@Z
    ??0Csanctutil@sanct@@QAE@XZ    @3   ; ??0Csanctutil@sanct@@QAE@XZ
    ??0Directory@sanct@@QAE@ABV01@@Z @4   ; ??0Directory@sanct@@QAE@ABV01@@Z
    ??0Directory@sanct@@QAE@ABVString@1@@Z @5   ; ??0Directory@sanct@@QAE@ABVString@1@@Z
    ??0Directory@sanct@@QAE@PB_W@Z @6   ; ??0Directory@sanct@@QAE@PB_W@Z
    ??0ElHandler@sanct@@QAE@AAVSlipManager@1@@Z @7   ; ??0ElHandler@sanct@@QAE@AAVSlipManager@1@@Z
    ??0ElHandler@sanct@@QAE@ABV01@@Z @8   ; ??0ElHandler@sanct@@QAE@ABV01@@Z
    ??0File@sanct@@QAE@ABV01@@Z    @9   ; ??0File@sanct@@QAE@ABV01@@Z
    ??0File@sanct@@QAE@ABV01@ABVString@1@@Z @10  ; ??0File@sanct@@QAE@ABV01@ABVString@1@@Z
    ??0File@sanct@@QAE@ABVString@1@0@Z @11  ; ??0File@sanct@@QAE@ABVString@1@0@Z
    ??0File@sanct@@QAE@ABVString@1@@Z @12  ; ??0File@sanct@@QAE@ABVString@1@@Z
    ??0File@sanct@@QAE@PB_WABVString@1@@Z @13  ; ??0File@sanct@@QAE@PB_WABVString@1@@Z
    ??0File@sanct@@QAE@XZ          @14  ; ??0File@sanct@@QAE@XZ
    ??0ILicenseUpdateCallback@sanct@@QAE@ABV01@@Z @15  ; ??0ILicenseUpdateCallback@sanct@@QAE@ABV01@@Z
    ??0ILicenseUpdateCallback@sanct@@QAE@XZ @16  ; ??0ILicenseUpdateCallback@sanct@@QAE@XZ
    ??0IOException@sanct@@QAE@ABV01@@Z @17  ; ??0IOException@sanct@@QAE@ABV01@@Z
    ??0IOException@sanct@@QAE@ABVString@1@@Z @18  ; ??0IOException@sanct@@QAE@ABVString@1@@Z
    ??0IOException@sanct@@QAE@H@Z  @19  ; ??0IOException@sanct@@QAE@H@Z
    ??0IOException@sanct@@QAE@HABVString@1@@Z @20  ; ??0IOException@sanct@@QAE@HABVString@1@@Z
    ??0IOException@sanct@@QAE@HPB_W@Z @21  ; ??0IOException@sanct@@QAE@HPB_W@Z
    ??0IOException@sanct@@QAE@PB_W@Z @22  ; ??0IOException@sanct@@QAE@PB_W@Z
    ??0IOException@sanct@@QAE@XZ   @23  ; ??0IOException@sanct@@QAE@XZ
    ??0IUpdatePrefs@sanct@@QAE@ABV01@@Z @24  ; ??0IUpdatePrefs@sanct@@QAE@ABV01@@Z
    ??0IUpdatePrefs@sanct@@QAE@XZ  @25  ; ??0IUpdatePrefs@sanct@@QAE@XZ
    ??0InfoManager@sanct@@QAE@ABV01@@Z @26  ; ??0InfoManager@sanct@@QAE@ABV01@@Z
    ??0InfoManager@sanct@@QAE@XZ   @27  ; ??0InfoManager@sanct@@QAE@XZ
    ??0LicenseFactory@sanct@@AAE@XZ @28  ; ??0LicenseFactory@sanct@@AAE@XZ
    ??0LicenseFileHelper@sanct@@QAE@ABV01@@Z @29  ; ??0LicenseFileHelper@sanct@@QAE@ABV01@@Z
    ??0LicenseFileHelper@sanct@@QAE@PBVFile@1@00_N1@Z @30  ; ??0LicenseFileHelper@sanct@@QAE@PBVFile@1@00_N1@Z
    ??0LicenseFileHelper@sanct@@QAE@PBVFile@1@0_N1@Z @31  ; ??0LicenseFileHelper@sanct@@QAE@PBVFile@1@0_N1@Z
    ??0LicenseFileHelper@sanct@@QAE@PB_W0_N1@Z @32  ; ??0LicenseFileHelper@sanct@@QAE@PB_W0_N1@Z
    ??0LicenseRenewalPrefs@sanct@@QAE@ABV01@@Z @33  ; ??0LicenseRenewalPrefs@sanct@@QAE@ABV01@@Z
    ??0LicenseRenewalPrefs@sanct@@QAE@XZ @34  ; ??0LicenseRenewalPrefs@sanct@@QAE@XZ
    ??0MytoolsDescriptor@sanct@@QAE@ABV01@@Z @35  ; ??0MytoolsDescriptor@sanct@@QAE@ABV01@@Z
    ??0MytoolsDescriptor@sanct@@QAE@HHVString@1@0@Z @36  ; ??0MytoolsDescriptor@sanct@@QAE@HHVString@1@0@Z
    ??0OrderedProductInfo@sanct@@QAE@ABV01@@Z @37  ; ??0OrderedProductInfo@sanct@@QAE@ABV01@@Z
    ??0OrderedProductInfo@sanct@@QAE@PAVSortedSMap@1@0@Z @38  ; ??0OrderedProductInfo@sanct@@QAE@PAVSortedSMap@1@0@Z
    ??0OrderedProductInfo@sanct@@QAE@XZ @39  ; ??0OrderedProductInfo@sanct@@QAE@XZ
    ??0PathPlaceholderHelper@sanct@@QAE@ABV01@@Z @40  ; ??0PathPlaceholderHelper@sanct@@QAE@ABV01@@Z
    ??0PathPlaceholderHelper@sanct@@QAE@ABVString@1@@Z @41  ; ??0PathPlaceholderHelper@sanct@@QAE@ABVString@1@@Z
    ??0PathPlaceholderHelper@sanct@@QAE@XZ @42  ; ??0PathPlaceholderHelper@sanct@@QAE@XZ
    ??0RuntimeException@sanct@@QAE@ABV01@@Z @43  ; ??0RuntimeException@sanct@@QAE@ABV01@@Z
    ??0RuntimeException@sanct@@QAE@ABVString@1@@Z @44  ; ??0RuntimeException@sanct@@QAE@ABVString@1@@Z
    ??0RuntimeException@sanct@@QAE@PB_W@Z @45  ; ??0RuntimeException@sanct@@QAE@PB_W@Z
    ??0RuntimeException@sanct@@QAE@XZ @46  ; ??0RuntimeException@sanct@@QAE@XZ
    ??0SVector@sanct@@QAE@ABV01@@Z @47  ; ??0SVector@sanct@@QAE@ABV01@@Z
    ??0SVector@sanct@@QAE@XZ       @48  ; ??0SVector@sanct@@QAE@XZ
    ??0SanctHandler@sanct@@QAE@ABV01@@Z @49  ; ??0SanctHandler@sanct@@QAE@ABV01@@Z
    ??0SanctHandler@sanct@@QAE@XZ  @50  ; ??0SanctHandler@sanct@@QAE@XZ
    ??0SanctLogger@sanct@@QAE@ABV01@@Z @51  ; ??0SanctLogger@sanct@@QAE@ABV01@@Z
    ??0SanctLogger@sanct@@QAE@XZ   @52  ; ??0SanctLogger@sanct@@QAE@XZ
    ??0SlipException@sanct@@QAE@ABV01@@Z @53  ; ??0SlipException@sanct@@QAE@ABV01@@Z
    ??0SlipException@sanct@@QAE@H@Z @54  ; ??0SlipException@sanct@@QAE@H@Z
    ??0SlipException@sanct@@QAE@HABVString@1@@Z @55  ; ??0SlipException@sanct@@QAE@HABVString@1@@Z
    ??0SlipException@sanct@@QAE@XZ @56  ; ??0SlipException@sanct@@QAE@XZ
    ??0SlipManager@sanct@@IAE@PB_W000H@Z @57  ; ??0SlipManager@sanct@@IAE@PB_W000H@Z
    ??0SlipManager@sanct@@IAE@PB_W000HABVString@1@@Z @58  ; ??0SlipManager@sanct@@IAE@PB_W000HABVString@1@@Z
    ??0SlipManager@sanct@@IAE@PB_W000HH00H@Z @59  ; ??0SlipManager@sanct@@IAE@PB_W000HH00H@Z
    ??0SlipManager@sanct@@IAE@PB_W000HH@Z @60  ; ??0SlipManager@sanct@@IAE@PB_W000HH@Z
    ??0SlipManager@sanct@@IAE@PB_W00H@Z @61  ; ??0SlipManager@sanct@@IAE@PB_W00H@Z
    ??0SlipManager@sanct@@IAE@PB_W00HABVString@1@@Z @62  ; ??0SlipManager@sanct@@IAE@PB_W00HABVString@1@@Z
    ??0SlipManager@sanct@@IAE@PB_W00HH@Z @63  ; ??0SlipManager@sanct@@IAE@PB_W00HH@Z
    ??0SlipManagerFactory@sanct@@IAE@PB_W000H@Z @64  ; ??0SlipManagerFactory@sanct@@IAE@PB_W000H@Z
    ??0SlipManagerFactory@sanct@@IAE@PB_W000HABVString@1@@Z @65  ; ??0SlipManagerFactory@sanct@@IAE@PB_W000HABVString@1@@Z
    ??0SlipManagerFactory@sanct@@IAE@PB_W000HH00H@Z @66  ; ??0SlipManagerFactory@sanct@@IAE@PB_W000HH00H@Z
    ??0SlipManagerFactory@sanct@@IAE@PB_W000HH@Z @67  ; ??0SlipManagerFactory@sanct@@IAE@PB_W000HH@Z
    ??0SlipManagerFactory@sanct@@IAE@PB_W00H@Z @68  ; ??0SlipManagerFactory@sanct@@IAE@PB_W00H@Z
    ??0SlipManagerFactory@sanct@@IAE@PB_W00HABVString@1@@Z @69  ; ??0SlipManagerFactory@sanct@@IAE@PB_W00HABVString@1@@Z
    ??0SlipManagerFactory@sanct@@IAE@PB_W00HH@Z @70  ; ??0SlipManagerFactory@sanct@@IAE@PB_W00HH@Z
    ??0SortedSMap@sanct@@QAE@ABV01@@Z @71  ; ??0SortedSMap@sanct@@QAE@ABV01@@Z
    ??0SortedSMap@sanct@@QAE@XZ    @72  ; ??0SortedSMap@sanct@@QAE@XZ
    ??0String@sanct@@QAE@ABV01@@Z  @73  ; ??0String@sanct@@QAE@ABV01@@Z
    ??0String@sanct@@QAE@PB_WH@Z   @74  ; ??0String@sanct@@QAE@PB_WH@Z
    ??0String@sanct@@QAE@XZ        @75  ; ??0String@sanct@@QAE@XZ
    ??0String@sanct@@QAE@_W@Z      @76  ; ??0String@sanct@@QAE@_W@Z
    ??0StringConv@sanct@@QAE@ABVString@1@W4Encoding@01@@Z @77  ; ??0StringConv@sanct@@QAE@ABVString@1@W4Encoding@01@@Z
    ??0StringConv@sanct@@QAE@PBDHW4Encoding@01@@Z @78  ; ??0StringConv@sanct@@QAE@PBDHW4Encoding@01@@Z
    ??0StringConv@sanct@@QAE@PB_WHW4Encoding@01@@Z @79  ; ??0StringConv@sanct@@QAE@PB_WHW4Encoding@01@@Z
    ??0StringConv@sanct@@QAE@XZ    @80  ; ??0StringConv@sanct@@QAE@XZ
    ??0VISMutex@@QAE@XZ            @81  ; ??0VISMutex@@QAE@XZ
    ??0VISMutex_var@@QAE@AAVVISMutex@@E@Z @82  ; ??0VISMutex_var@@QAE@AAVVISMutex@@E@Z
    ??0Vector@sanct@@QAE@ABV01@@Z  @83  ; ??0Vector@sanct@@QAE@ABV01@@Z
    ??0Vector@sanct@@QAE@XZ        @84  ; ??0Vector@sanct@@QAE@XZ
    ??1CheckinPolicyUtil@sanct@@QAE@XZ @85  ; ??1CheckinPolicyUtil@sanct@@QAE@XZ
    ??1Csanctutil@sanct@@QAE@XZ    @86  ; ??1Csanctutil@sanct@@QAE@XZ
    ??1Directory@sanct@@QAE@XZ     @87  ; ??1Directory@sanct@@QAE@XZ
    ??1ElHandler@sanct@@UAE@XZ     @88  ; ??1ElHandler@sanct@@UAE@XZ
    ??1File@sanct@@QAE@XZ          @89  ; ??1File@sanct@@QAE@XZ
    ??1IOException@sanct@@QAE@XZ   @90  ; ??1IOException@sanct@@QAE@XZ
    ??1InfoManager@sanct@@UAE@XZ   @91  ; ??1InfoManager@sanct@@UAE@XZ
    ??1LicenseFileHelper@sanct@@UAE@XZ @92  ; ??1LicenseFileHelper@sanct@@UAE@XZ
    ??1MytoolsDescriptor@sanct@@QAE@XZ @93  ; ??1MytoolsDescriptor@sanct@@QAE@XZ
    ??1OrderedProductInfo@sanct@@EAE@XZ @94  ; ??1OrderedProductInfo@sanct@@EAE@XZ
    ??1PathPlaceholderHelper@sanct@@QAE@XZ @95  ; ??1PathPlaceholderHelper@sanct@@QAE@XZ
    ??1RuntimeException@sanct@@QAE@XZ @96  ; ??1RuntimeException@sanct@@QAE@XZ
    ??1SVector@sanct@@UAE@XZ       @97  ; ??1SVector@sanct@@UAE@XZ
    ??1SanctHandler@sanct@@UAE@XZ  @98  ; ??1SanctHandler@sanct@@UAE@XZ
    ??1SanctLogger@sanct@@UAE@XZ   @99  ; ??1SanctLogger@sanct@@UAE@XZ
    ??1SlipException@sanct@@QAE@XZ @100 ; ??1SlipException@sanct@@QAE@XZ
    ??1SlipManager@sanct@@MAE@XZ   @101 ; ??1SlipManager@sanct@@MAE@XZ
    ??1SlipManagerFactory@sanct@@MAE@XZ @102 ; ??1SlipManagerFactory@sanct@@MAE@XZ
    ??1SortedSMap@sanct@@UAE@XZ    @103 ; ??1SortedSMap@sanct@@UAE@XZ
    ??1String@sanct@@QAE@XZ        @104 ; ??1String@sanct@@QAE@XZ
    ??1StringConv@sanct@@QAE@XZ    @105 ; ??1StringConv@sanct@@QAE@XZ
    ??1VISMutex@@QAE@XZ            @106 ; ??1VISMutex@@QAE@XZ
    ??1VISMutex_var@@QAE@XZ        @107 ; ??1VISMutex_var@@QAE@XZ
    ??1Vector@sanct@@UAE@XZ        @108 ; ??1Vector@sanct@@UAE@XZ
    ??4Csanctutil@sanct@@QAEAAV01@ABV01@@Z @109 ; ??4Csanctutil@sanct@@QAEAAV01@ABV01@@Z
    ??4Data@sanct@@QAEAAV01@ABV01@@Z @110 ; ??4Data@sanct@@QAEAAV01@ABV01@@Z
    ??4Directory@sanct@@QAEAAV01@ABV01@@Z @111 ; ??4Directory@sanct@@QAEAAV01@ABV01@@Z
    ??4ElHandler@sanct@@QAEAAV01@ABV01@@Z @112 ; ??4ElHandler@sanct@@QAEAAV01@ABV01@@Z
    ??4FileHelper@sanct@@QAEAAV01@ABV01@@Z @113 ; ??4FileHelper@sanct@@QAEAAV01@ABV01@@Z
    ??4ILicenseUpdateCallback@sanct@@QAEAAV01@ABV01@@Z @114 ; ??4ILicenseUpdateCallback@sanct@@QAEAAV01@ABV01@@Z
    ??4IUpdatePrefs@sanct@@QAEAAV01@ABV01@@Z @115 ; ??4IUpdatePrefs@sanct@@QAEAAV01@ABV01@@Z
    ??4InfoManager@sanct@@QAEAAV01@ABV01@@Z @116 ; ??4InfoManager@sanct@@QAEAAV01@ABV01@@Z
    ??4LicenseFactory@sanct@@QAEAAV01@ABV01@@Z @117 ; ??4LicenseFactory@sanct@@QAEAAV01@ABV01@@Z
    ??4LicenseFileHelper@sanct@@QAEAAV01@ABV01@@Z @118 ; ??4LicenseFileHelper@sanct@@QAEAAV01@ABV01@@Z
    ??4LicenseRenewalPrefs@sanct@@QAEAAV01@ABV01@@Z @119 ; ??4LicenseRenewalPrefs@sanct@@QAEAAV01@ABV01@@Z
    ??4MultiOperations@sanct@@QAEAAV01@ABV01@@Z @120 ; ??4MultiOperations@sanct@@QAEAAV01@ABV01@@Z
    ??4MytoolsDescriptor@sanct@@QAEXABV01@@Z @121 ; ??4MytoolsDescriptor@sanct@@QAEXABV01@@Z
    ??4PathPlaceholderHelper@sanct@@QAEAAV01@ABV01@@Z @122 ; ??4PathPlaceholderHelper@sanct@@QAEAAV01@ABV01@@Z
    ??4SVector@sanct@@QAEAAV01@ABV01@@Z @123 ; ??4SVector@sanct@@QAEAAV01@ABV01@@Z
    ??4SanctHandler@sanct@@QAEAAV01@ABV01@@Z @124 ; ??4SanctHandler@sanct@@QAEAAV01@ABV01@@Z
    ??4SanctLogger@sanct@@QAEAAV01@ABV01@@Z @125 ; ??4SanctLogger@sanct@@QAEAAV01@ABV01@@Z
    ??4SlipException@sanct@@QAEXABV01@@Z @126 ; ??4SlipException@sanct@@QAEXABV01@@Z
    ??4String@sanct@@QAEXABV01@@Z  @127 ; ??4String@sanct@@QAEXABV01@@Z
    ??4String@sanct@@QAEXH@Z       @128 ; ??4String@sanct@@QAEXH@Z
    ??4String@sanct@@QAEXN@Z       @129 ; ??4String@sanct@@QAEXN@Z
    ??4String@sanct@@QAEXPBV01@@Z  @130 ; ??4String@sanct@@QAEXPBV01@@Z
    ??4String@sanct@@QAEXPB_W@Z    @131 ; ??4String@sanct@@QAEXPB_W@Z
    ??4StringConv@sanct@@QAEAAV01@ABV01@@Z @132 ; ??4StringConv@sanct@@QAEAAV01@ABV01@@Z
    ??4VISMutex@@QAEAAV0@ABV0@@Z   @133 ; ??4VISMutex@@QAEAAV0@ABV0@@Z
    ??4Vector@sanct@@QAEAAV01@ABV01@@Z @134 ; ??4Vector@sanct@@QAEAAV01@ABV01@@Z
    ??8MytoolsDescriptor@sanct@@QBE_NABV01@@Z @135 ; ??8MytoolsDescriptor@sanct@@QBE_NABV01@@Z
    ??8String@sanct@@QBE_NABV01@@Z @136 ; ??8String@sanct@@QBE_NABV01@@Z
    ??8String@sanct@@QBE_NPB_W@Z   @137 ; ??8String@sanct@@QBE_NPB_W@Z
    ??9MytoolsDescriptor@sanct@@QBE_NABV01@@Z @138 ; ??9MytoolsDescriptor@sanct@@QBE_NABV01@@Z
    ??9String@sanct@@QBE_NABV01@@Z @139 ; ??9String@sanct@@QBE_NABV01@@Z
    ??9String@sanct@@QBE_NPB_W@Z   @140 ; ??9String@sanct@@QBE_NPB_W@Z
    ??ADirectory@sanct@@QBEPBVString@1@H@Z @141 ; ??ADirectory@sanct@@QBEPBVString@1@H@Z
    ??ASVector@sanct@@QBEPBVString@1@H@Z @142 ; ??ASVector@sanct@@QBEPBVString@1@H@Z
    ??AString@sanct@@QBE_WH@Z      @143 ; ??AString@sanct@@QBE_WH@Z
    ??AVector@sanct@@QBEPBXH@Z     @144 ; ??AVector@sanct@@QBEPBXH@Z
    ??BString@sanct@@QBEPB_WXZ     @145 ; ??BString@sanct@@QBEPB_WXZ
    ??BStringConv@sanct@@QAEABVCharArrayReader@1@XZ @146 ; ??BStringConv@sanct@@QAEABVCharArrayReader@1@XZ
    ??BStringConv@sanct@@QAEPBDXZ  @147 ; ??BStringConv@sanct@@QAEPBDXZ
    ??BStringConv@sanct@@QAEPB_WXZ @148 ; ??BStringConv@sanct@@QAEPB_WXZ
    ??HString@sanct@@QAEAAV01@ABV01@@Z @149 ; ??HString@sanct@@QAEAAV01@ABV01@@Z
    ??HString@sanct@@QAEAAV01@PB_W@Z @150 ; ??HString@sanct@@QAEAAV01@PB_W@Z
    ??MMytoolsDescriptor@sanct@@QBE_NABV01@@Z @151 ; ??MMytoolsDescriptor@sanct@@QBE_NABV01@@Z
    ??MString@sanct@@QBE_NABV01@@Z @152 ; ??MString@sanct@@QBE_NABV01@@Z
    ??NString@sanct@@QBE_NABV01@@Z @153 ; ??NString@sanct@@QBE_NABV01@@Z
    ??OMytoolsDescriptor@sanct@@QBE_NABV01@@Z @154 ; ??OMytoolsDescriptor@sanct@@QBE_NABV01@@Z
    ??OString@sanct@@QBE_NABV01@@Z @155 ; ??OString@sanct@@QBE_NABV01@@Z
    ??PString@sanct@@QBE_NABV01@@Z @156 ; ??PString@sanct@@QBE_NABV01@@Z
    ??YString@sanct@@QAEXABV01@@Z  @157 ; ??YString@sanct@@QAEXABV01@@Z
    ??YString@sanct@@QAEXH@Z       @158 ; ??YString@sanct@@QAEXH@Z
    ??YString@sanct@@QAEXN@Z       @159 ; ??YString@sanct@@QAEXN@Z
    ??YString@sanct@@QAEXPB_W@Z    @160 ; ??YString@sanct@@QAEXPB_W@Z
    ??YString@sanct@@QAEX_W@Z      @161 ; ??YString@sanct@@QAEX_W@Z
    ??_7ElHandler@sanct@@6B@       @162 ; ??_7ElHandler@sanct@@6B@
    ??_7ILicenseUpdateCallback@sanct@@6B@ @163 ; ??_7ILicenseUpdateCallback@sanct@@6B@
    ??_7IUpdatePrefs@sanct@@6B@    @164 ; ??_7IUpdatePrefs@sanct@@6B@
    ??_7InfoManager@sanct@@6B@     @165 ; ??_7InfoManager@sanct@@6B@
    ??_7LicenseFileHelper@sanct@@6B@ @166 ; ??_7LicenseFileHelper@sanct@@6B@
    ??_7LicenseRenewalPrefs@sanct@@6B@ @167 ; ??_7LicenseRenewalPrefs@sanct@@6B@
    ??_7OrderedProductInfo@sanct@@6B@ @168 ; ??_7OrderedProductInfo@sanct@@6B@
    ??_7SVector@sanct@@6B@         @169 ; ??_7SVector@sanct@@6B@
    ??_7SanctHandler@sanct@@6B@    @170 ; ??_7SanctHandler@sanct@@6B@
    ??_7SanctLogger@sanct@@6B@     @171 ; ??_7SanctLogger@sanct@@6B@
    ??_7SlipManager@sanct@@6B@     @172 ; ??_7SlipManager@sanct@@6B@
    ??_7SlipManagerFactory@sanct@@6B@ @173 ; ??_7SlipManagerFactory@sanct@@6B@
    ??_7SortedSMap@sanct@@6B@      @174 ; ??_7SortedSMap@sanct@@6B@
    ??_7Vector@sanct@@6B@          @175 ; ??_7Vector@sanct@@6B@
    ?ACTIVATION_SLIP@Data@sanct@@2PB_WB @176 ; ?ACTIVATION_SLIP@Data@sanct@@2PB_WB
    ?ADDON_PREFIX@Data@sanct@@2PB_WB @177 ; ?ADDON_PREFIX@Data@sanct@@2PB_WB
    ?ALL_USERS_DIR@Data@sanct@@2PB_WB @178 ; ?ALL_USERS_DIR@Data@sanct@@2PB_WB
    ?ALL_USERS_TYPE@LicenseFileHelper@sanct@@2HB @179 ; ?ALL_USERS_TYPE@LicenseFileHelper@sanct@@2HB
    ?ALPHABET32@Data@sanct@@2VString@2@B @180 ; ?ALPHABET32@Data@sanct@@2VString@2@B
    ?ATTR_CONN_STATUS@OrderedProductInfo@sanct@@0VString@2@B @181 ; ?ATTR_CONN_STATUS@OrderedProductInfo@sanct@@0VString@2@B
    ?ATTR_DELIMITER@SanctLogger@sanct@@2PB_WB @182 ; ?ATTR_DELIMITER@SanctLogger@sanct@@2PB_WB
    ?ATTR_FIRST_USED@OrderedProductInfo@sanct@@0VString@2@B @183 ; ?ATTR_FIRST_USED@OrderedProductInfo@sanct@@0VString@2@B
    ?ATTR_LAST_USED@OrderedProductInfo@sanct@@0VString@2@B @184 ; ?ATTR_LAST_USED@OrderedProductInfo@sanct@@0VString@2@B
    ?AddRef@OrderedProductInfo@sanct@@QAEXXZ @185 ; ?AddRef@OrderedProductInfo@sanct@@QAEXXZ
    ?Address@Data@sanct@@2PB_WB    @186 ; ?Address@Data@sanct@@2PB_WB
    ?BACKUP_DEFAULT_FILE@LicenseFileHelper@sanct@@0VString@2@B @187 ; ?BACKUP_DEFAULT_FILE@LicenseFileHelper@sanct@@0VString@2@B
    ?BELISE@Data@sanct@@2VString@2@B @188 ; ?BELISE@Data@sanct@@2VString@2@B
    ?Borrow@MultiOperations@sanct@@SAHPAPAVSanctLicense@2@HPANPAH@Z @189 ; ?Borrow@MultiOperations@sanct@@SAHPAPAVSanctLicense@2@HPANPAH@Z
    ?BorrowSameDuration@MultiOperations@sanct@@SAHPAPAVSanctLicense@2@HNPAH@Z @190 ; ?BorrowSameDuration@MultiOperations@sanct@@SAHPAPAVSanctLicense@2@HNPAH@Z
    ?BreakServerKey@MultiOperations@sanct@@SAXABVString@2@AAV32@1AAH1211@Z @191 ; ?BreakServerKey@MultiOperations@sanct@@SAXABVString@2@AAV32@1AAH1211@Z
    ?CODEGEAR_DIR@Data@sanct@@2PB_WB @192 ; ?CODEGEAR_DIR@Data@sanct@@2PB_WB
    ?CODEGEAR_LIC_DIR@Data@sanct@@2PB_WB @193 ; ?CODEGEAR_LIC_DIR@Data@sanct@@2PB_WB
    ?CORRUPTED@Data@sanct@@2PB_WB  @194 ; ?CORRUPTED@Data@sanct@@2PB_WB
    ?CORRUPTED_FILE@Data@sanct@@2PB_WB @195 ; ?CORRUPTED_FILE@Data@sanct@@2PB_WB
    ?CSV_DELIMITER@Data@sanct@@2_WB @196 ; ?CSV_DELIMITER@Data@sanct@@2_WB
    ?CURRENT_USER_TYPE@LicenseFileHelper@sanct@@2HB @197 ; ?CURRENT_USER_TYPE@LicenseFileHelper@sanct@@2HB
    ?CanRead@File@sanct@@QBE_NXZ   @198 ; ?CanRead@File@sanct@@QBE_NXZ
    ?CanWrite@File@sanct@@QBE_NXZ  @199 ; ?CanWrite@File@sanct@@QBE_NXZ
    ?CheckAndCreate@File@sanct@@CA_NABVString@2@@Z @200 ; ?CheckAndCreate@File@sanct@@CA_NABVString@2@@Z
    ?Checkin@MultiOperations@sanct@@SAHPAPAVSanctLicense@2@HPAH@Z @201 ; ?Checkin@MultiOperations@sanct@@SAHPAPAVSanctLicense@2@HPAH@Z
    ?Checkout@MultiOperations@sanct@@SAHPAPAVSanctLicense@2@HPAH@Z @202 ; ?Checkout@MultiOperations@sanct@@SAHPAPAVSanctLicense@2@HPAH@Z
    ?City@Data@sanct@@2PB_WB       @203 ; ?City@Data@sanct@@2PB_WB
    ?CommunityNews@Data@sanct@@2PB_WB @204 ; ?CommunityNews@Data@sanct@@2PB_WB
    ?Company@Data@sanct@@2PB_WB    @205 ; ?Company@Data@sanct@@2PB_WB
    ?ContactByEmail@Data@sanct@@2PB_WB @206 ; ?ContactByEmail@Data@sanct@@2PB_WB
    ?ContactByFax@Data@sanct@@2PB_WB @207 ; ?ContactByFax@Data@sanct@@2PB_WB
    ?ContactByPhone@Data@sanct@@2PB_WB @208 ; ?ContactByPhone@Data@sanct@@2PB_WB
    ?ContactByPostal@Data@sanct@@2PB_WB @209 ; ?ContactByPostal@Data@sanct@@2PB_WB
    ?CopyFileW@FileHelper@sanct@@SA_NABVFile@2@0@Z @210 ; ?CopyFileW@FileHelper@sanct@@SA_NABVFile@2@0@Z
    ?Country@Data@sanct@@2PB_WB    @211 ; ?Country@Data@sanct@@2PB_WB
    ?CreateBurstItem@MultiOperations@sanct@@CAPAVBaseBurstItem@2@HPAVSanctLicense@2@PAXH@Z @212 ; ?CreateBurstItem@MultiOperations@sanct@@CAPAVBaseBurstItem@2@HPAVSanctLicense@2@PAXH@Z
    ?CreateLicense@LicenseFactory@sanct@@SAPAVSanctLicense@2@NAAVOrderedProductInfo@2@AAVSlipManager@2@AAVSanctHandler@2@PAH@Z @213 ; ?CreateLicense@LicenseFactory@sanct@@SAPAVSanctLicense@2@NAAVOrderedProductInfo@2@AAVSlipManager@2@AAVSanctHandler@2@PAH@Z
    ?CreateLicense@LicenseFactory@sanct@@SAPAVSanctLicense@2@NAAVOrderedProductInfo@2@AAVSlipManager@2@AAVSanctHandler@2@_NPAHPB_W@Z @214 ; ?CreateLicense@LicenseFactory@sanct@@SAPAVSanctLicense@2@NAAVOrderedProductInfo@2@AAVSlipManager@2@AAVSanctHandler@2@_NPAHPB_W@Z
    ?CreateManualLicense@LicenseFactory@sanct@@SAPAVSanctLicense@2@NAAVOrderedProductInfo@2@AAVSlipManager@2@PAHPB_W@Z @215 ; ?CreateManualLicense@LicenseFactory@sanct@@SAPAVSanctLicense@2@NAAVOrderedProductInfo@2@AAVSlipManager@2@PAHPB_W@Z
    ?CreateNewFile@File@sanct@@QBE_NXZ @216 ; ?CreateNewFile@File@sanct@@QBE_NXZ
    ?CreateSlipManager@SlipManagerFactory@sanct@@SAPAVSlipManager@2@PB_W000H@Z @217 ; ?CreateSlipManager@SlipManagerFactory@sanct@@SAPAVSlipManager@2@PB_W000H@Z
    ?CreateSlipManager@SlipManagerFactory@sanct@@SAPAVSlipManager@2@PB_W000HABVString@2@@Z @218 ; ?CreateSlipManager@SlipManagerFactory@sanct@@SAPAVSlipManager@2@PB_W000HABVString@2@@Z
    ?CreateSlipManager@SlipManagerFactory@sanct@@SAPAVSlipManager@2@PB_W000HH00H@Z @219 ; ?CreateSlipManager@SlipManagerFactory@sanct@@SAPAVSlipManager@2@PB_W000HH00H@Z
    ?CreateSlipManager@SlipManagerFactory@sanct@@SAPAVSlipManager@2@PB_W000HH@Z @220 ; ?CreateSlipManager@SlipManagerFactory@sanct@@SAPAVSlipManager@2@PB_W000HH@Z
    ?CreateSlipManager@SlipManagerFactory@sanct@@SAPAVSlipManager@2@PB_W00H@Z @221 ; ?CreateSlipManager@SlipManagerFactory@sanct@@SAPAVSlipManager@2@PB_W00H@Z
    ?CreateSlipManager@SlipManagerFactory@sanct@@SAPAVSlipManager@2@PB_W00HABVString@2@@Z @222 ; ?CreateSlipManager@SlipManagerFactory@sanct@@SAPAVSlipManager@2@PB_W00HABVString@2@@Z
    ?CreateSlipManager@SlipManagerFactory@sanct@@SAPAVSlipManager@2@PB_W00HH@Z @223 ; ?CreateSlipManager@SlipManagerFactory@sanct@@SAPAVSlipManager@2@PB_W00HH@Z
    ?CreateTempFile@File@sanct@@SAXPAV12@ABVString@2@1ABV12@@Z @224 ; ?CreateTempFile@File@sanct@@SAXPAV12@ABVString@2@1ABV12@@Z
    ?DEFAULT_MAX_LOCK_ATTEMPTS@FileHelper@sanct@@0HB @225 ; ?DEFAULT_MAX_LOCK_ATTEMPTS@FileHelper@sanct@@0HB
    ?DEFAULT_SLIP@Data@sanct@@2PB_WB @226 ; ?DEFAULT_SLIP@Data@sanct@@2PB_WB
    ?DEF_LICENSE_DIR@Data@sanct@@2PB_WB @227 ; ?DEF_LICENSE_DIR@Data@sanct@@2PB_WB
    ?DecodeProxyInfo@MultiOperations@sanct@@SAXAAVString@2@AAH01000@Z @228 ; ?DecodeProxyInfo@MultiOperations@sanct@@SAXAAVString@2@AAH01000@Z
    ?DefaultEmail@Data@sanct@@2PB_WB @229 ; ?DefaultEmail@Data@sanct@@2PB_WB
    ?DefaultUrl@Data@sanct@@2PB_WB @230 ; ?DefaultUrl@Data@sanct@@2PB_WB
    ?Delete@File@sanct@@QBE_NXZ    @231 ; ?Delete@File@sanct@@QBE_NXZ
    ?EMBARCADERO_DIR@Data@sanct@@2PB_WB @232 ; ?EMBARCADERO_DIR@Data@sanct@@2PB_WB
    ?EML_EXT@Data@sanct@@2PB_WB    @233 ; ?EML_EXT@Data@sanct@@2PB_WB
    ?EMPTY@String@sanct@@2PB_WB    @234 ; ?EMPTY@String@sanct@@2PB_WB
    ?EMPTY_STRING@Data@sanct@@2PB_WB @235 ; ?EMPTY_STRING@Data@sanct@@2PB_WB
    ?EMPTY_STRING@SanctLogger@sanct@@2PB_WB @236 ; ?EMPTY_STRING@SanctLogger@sanct@@2PB_WB
    ?ENCODE_ANSI@Data@sanct@@2PB_WB @237 ; ?ENCODE_ANSI@Data@sanct@@2PB_WB
    ?ENCODE_DATABLOCK@Data@sanct@@2PB_WB @238 ; ?ENCODE_DATABLOCK@Data@sanct@@2PB_WB
    ?ENCODE_RESPONSE@Data@sanct@@2PB_WB @239 ; ?ENCODE_RESPONSE@Data@sanct@@2PB_WB
    ?ENCODE_SLIPS@Data@sanct@@2PB_WB @240 ; ?ENCODE_SLIPS@Data@sanct@@2PB_WB
    ?ENCODE_UTF8@Data@sanct@@2PB_WB @241 ; ?ENCODE_UTF8@Data@sanct@@2PB_WB
    ?Email@Data@sanct@@2PB_WB      @242 ; ?Email@Data@sanct@@2PB_WB
    ?EmailId@Data@sanct@@2PB_WB    @243 ; ?EmailId@Data@sanct@@2PB_WB
    ?EncodeProxyInfo@MultiOperations@sanct@@SA?AVString@2@HAAV32@H000@Z @244 ; ?EncodeProxyInfo@MultiOperations@sanct@@SA?AVString@2@HAAV32@H000@Z
    ?ExecuteBurstCommand@MultiOperations@sanct@@CAHPAPAVSanctLicense@2@HHPAXPAH_N@Z @245 ; ?ExecuteBurstCommand@MultiOperations@sanct@@CAHPAPAVSanctLicense@2@HHPAXPAH_N@Z
    ?ExecuteBurstCommandWithBackup@MultiOperations@sanct@@CAHPAPAVSanctLicense@2@HHPAXPAH@Z @246 ; ?ExecuteBurstCommandWithBackup@MultiOperations@sanct@@CAHPAPAVSanctLicense@2@HHPAXPAH@Z
    ?Exists@File@sanct@@QBE_NXZ    @247 ; ?Exists@File@sanct@@QBE_NXZ
    ?Expand@PathPlaceholderHelper@sanct@@ABE?AVString@2@ABV32@00@Z @248 ; ?Expand@PathPlaceholderHelper@sanct@@ABE?AVString@2@ABV32@00@Z
    ?ExpandPlaceholders@PathPlaceholderHelper@sanct@@QBE?AVString@2@ABV32@@Z @249 ; ?ExpandPlaceholders@PathPlaceholderHelper@sanct@@QBE?AVString@2@ABV32@@Z
    ?ExpandPlaceholders@PathPlaceholderHelper@sanct@@SA?AVString@2@ABV32@0@Z @250 ; ?ExpandPlaceholders@PathPlaceholderHelper@sanct@@SA?AVString@2@ABV32@0@Z
    ?FLEXLM@Data@sanct@@2VString@2@B @251 ; ?FLEXLM@Data@sanct@@2VString@2@B
    ?Fax@Data@sanct@@2PB_WB        @252 ; ?Fax@Data@sanct@@2PB_WB
    ?FindCommonAppsDir@LicenseFileHelper@sanct@@SAXPAVFile@2@@Z @253 ; ?FindCommonAppsDir@LicenseFileHelper@sanct@@SAXPAVFile@2@@Z
    ?FindCommonDocsDir@LicenseFileHelper@sanct@@SAXPAVFile@2@@Z @254 ; ?FindCommonDocsDir@LicenseFileHelper@sanct@@SAXPAVFile@2@@Z
    ?FindCurrentUserAppsDir@LicenseFileHelper@sanct@@SAXPAVFile@2@@Z @255 ; ?FindCurrentUserAppsDir@LicenseFileHelper@sanct@@SAXPAVFile@2@@Z
    ?FindHelperDir@LicenseFileHelper@sanct@@SAXPAVFile@2@HH@Z @256 ; ?FindHelperDir@LicenseFileHelper@sanct@@SAXPAVFile@2@HH@Z
    ?FirstName@Data@sanct@@2PB_WB  @257 ; ?FirstName@Data@sanct@@2PB_WB
    ?FoundPlaceholder@PathPlaceholderHelper@sanct@@SA_NABVString@2@0@Z @258 ; ?FoundPlaceholder@PathPlaceholderHelper@sanct@@SA_NABVString@2@0@Z
    ?GenerateFile@File@sanct@@CAXPAV12@ABVString@2@1ABV12@@Z @259 ; ?GenerateFile@File@sanct@@CAXPAV12@ABVString@2@1ABV12@@Z
    ?GetCertId@OrderedProductInfo@sanct@@QBEPBVString@2@XZ @260 ; ?GetCertId@OrderedProductInfo@sanct@@QBEPBVString@2@XZ
    ?GetCode@IOException@sanct@@QBEHXZ @261 ; ?GetCode@IOException@sanct@@QBEHXZ
    ?GetCommonHomeDir@LicenseFileHelper@sanct@@SAPB_WXZ @262 ; ?GetCommonHomeDir@LicenseFileHelper@sanct@@SAPB_WXZ
    ?GetCreatedDate@File@sanct@@QBE_KXZ @263 ; ?GetCreatedDate@File@sanct@@QBE_KXZ
    ?GetDeploymentType@OrderedProductInfo@sanct@@QBEHXZ @264 ; ?GetDeploymentType@OrderedProductInfo@sanct@@QBEHXZ
    ?GetESlipSubscriptionExpirationDate@OrderedProductInfo@sanct@@QBEJXZ @265 ; ?GetESlipSubscriptionExpirationDate@OrderedProductInfo@sanct@@QBEJXZ
    ?GetFileSize@File@sanct@@QBE?BJXZ @266 ; ?GetFileSize@File@sanct@@QBE?BJXZ
    ?GetFolderPath@LicenseFileHelper@sanct@@SAXHPAVFile@2@@Z @267 ; ?GetFolderPath@LicenseFileHelper@sanct@@SAXHPAVFile@2@@Z
    ?GetHomeDir@LicenseFileHelper@sanct@@SAPB_WXZ @268 ; ?GetHomeDir@LicenseFileHelper@sanct@@SAPB_WXZ
    ?GetHomePath@File@sanct@@SAPB_WXZ @269 ; ?GetHomePath@File@sanct@@SAPB_WXZ
    ?GetLastModified@File@sanct@@QBE?BJXZ @270 ; ?GetLastModified@File@sanct@@QBE?BJXZ
    ?GetLockFile@FileHelper@sanct@@SAPAVFile@2@ABV32@@Z @271 ; ?GetLockFile@FileHelper@sanct@@SAPAVFile@2@ABV32@@Z
    ?GetMaxLockAttempts@FileHelper@sanct@@SAHXZ @272 ; ?GetMaxLockAttempts@FileHelper@sanct@@SAHXZ
    ?GetName@File@sanct@@QBEXPAVString@2@@Z @273 ; ?GetName@File@sanct@@QBEXPAVString@2@@Z
    ?GetParent@File@sanct@@QBEXPAVString@2@@Z @274 ; ?GetParent@File@sanct@@QBEXPAVString@2@@Z
    ?GetPath@File@sanct@@QBEABVString@2@XZ @275 ; ?GetPath@File@sanct@@QBEABVString@2@XZ
    ?GetPath@File@sanct@@QBEXPAVString@2@@Z @276 ; ?GetPath@File@sanct@@QBEXPAVString@2@@Z
    ?GetPathUid@LicenseFileHelper@sanct@@CAHPBVFile@2@@Z @277 ; ?GetPathUid@LicenseFileHelper@sanct@@CAHPBVFile@2@@Z
    ?GetRegisteredTrialSerialSet@SlipManager@sanct@@ABEXPAVVector@2@@Z @278 ; ?GetRegisteredTrialSerialSet@SlipManager@sanct@@ABEXPAVVector@2@@Z
    ?GetSerial@SlipManager@sanct@@QBEPBVSerial@2@ABVString@2@@Z @279 ; ?GetSerial@SlipManager@sanct@@QBEPBVSerial@2@ABVString@2@@Z
    ?GetSerialSet@SlipManager@sanct@@QBEXPAVVector@2@@Z @280 ; ?GetSerialSet@SlipManager@sanct@@QBEXPAVVector@2@@Z
    ?GetServerKey@MultiOperations@sanct@@SA?AVString@2@PAVSanctLicense@2@@Z @281 ; ?GetServerKey@MultiOperations@sanct@@SA?AVString@2@PAVSanctLicense@2@@Z
    ?GetServerKey@MultiOperations@sanct@@SA?AVString@2@PAVSanctLicense@2@PAVLsConnection@2@@Z @282 ; ?GetServerKey@MultiOperations@sanct@@SA?AVString@2@PAVSanctLicense@2@PAVLsConnection@2@@Z
    ?GetSlipGuid@OrderedProductInfo@sanct@@QBEIXZ @283 ; ?GetSlipGuid@OrderedProductInfo@sanct@@QBEIXZ
    ?GetTrialSerial@SlipManager@sanct@@QBEPBVSerial@2@ABVString@2@@Z @284 ; ?GetTrialSerial@SlipManager@sanct@@QBEPBVSerial@2@ABVString@2@@Z
    ?GetUnregisteredSerialSet@SlipManager@sanct@@QBEXPAVVector@2@@Z @285 ; ?GetUnregisteredSerialSet@SlipManager@sanct@@QBEXPAVVector@2@@Z
    ?GetUserHome@LicenseFileHelper@sanct@@SAXPAVFile@2@@Z @286 ; ?GetUserHome@LicenseFileHelper@sanct@@SAXPAVFile@2@@Z
    ?GiveEveryoneFullControl@File@sanct@@SA_NABVString@2@@Z @287 ; ?GiveEveryoneFullControl@File@sanct@@SA_NABVString@2@@Z
    ?HIDDEN_SLIP@Data@sanct@@2PB_WB @288 ; ?HIDDEN_SLIP@Data@sanct@@2PB_WB
    ?INFO@Data@sanct@@2VString@2@B @289 ; ?INFO@Data@sanct@@2VString@2@B
    ?INFO_DIR@Data@sanct@@2PB_WB   @290 ; ?INFO_DIR@Data@sanct@@2PB_WB
    ?INFO_DIR_TYPE@LicenseFileHelper@sanct@@2HB @291 ; ?INFO_DIR_TYPE@LicenseFileHelper@sanct@@2HB
    ?INFO_EXT@Data@sanct@@2VString@2@B @292 ; ?INFO_EXT@Data@sanct@@2VString@2@B
    ?INVALID_FILE_EXT@Data@sanct@@2PB_WB @293 ; ?INVALID_FILE_EXT@Data@sanct@@2PB_WB
    ?IsDirectory@File@sanct@@QBE_NXZ @294 ; ?IsDirectory@File@sanct@@QBE_NXZ
    ?IsDirectory@File@sanct@@SA_NABVString@2@@Z @295 ; ?IsDirectory@File@sanct@@SA_NABVString@2@@Z
    ?JobTitle@Data@sanct@@2PB_WB   @296 ; ?JobTitle@Data@sanct@@2PB_WB
    ?KeepForeignFiles@SlipManager@sanct@@QAEX_N@Z @297 ; ?KeepForeignFiles@SlipManager@sanct@@QAEX_N@Z
    ?LICENSE_FILE@LicenseFileHelper@sanct@@0VString@2@B @298 ; ?LICENSE_FILE@LicenseFileHelper@sanct@@0VString@2@B
    ?LICENSE_SELECTION_FILE@Data@sanct@@2PB_WB @299 ; ?LICENSE_SELECTION_FILE@Data@sanct@@2PB_WB
    ?LOCK_EXT@FileHelper@sanct@@0VString@2@B @300 ; ?LOCK_EXT@FileHelper@sanct@@0VString@2@B
    ?LastName@Data@sanct@@2PB_WB   @301 ; ?LastName@Data@sanct@@2PB_WB
    ?Length@File@sanct@@QBEJXZ     @302 ; ?Length@File@sanct@@QBEJXZ
    ?LicDelimiter@Data@sanct@@2PB_WB @303 ; ?LicDelimiter@Data@sanct@@2PB_WB
    ?LicenseHtml@Data@sanct@@2PB_WB @304 ; ?LicenseHtml@Data@sanct@@2PB_WB
    ?Locale@Data@sanct@@2PB_WB     @305 ; ?Locale@Data@sanct@@2PB_WB
    ?Lock@File@sanct@@QAE_N_N0@Z   @306 ; ?Lock@File@sanct@@QAE_N_N0@Z
    ?Lock@FileHelper@sanct@@SA_NABVFile@2@@Z @307 ; ?Lock@FileHelper@sanct@@SA_NABVFile@2@@Z
    ?MAX_MOVE_ATTEMPTS@FileHelper@sanct@@0HB @308 ; ?MAX_MOVE_ATTEMPTS@FileHelper@sanct@@0HB
    ?MAX_MYTOOL_PRODUCT_ID@MytoolsDescriptor@sanct@@2HB @309 ; ?MAX_MYTOOL_PRODUCT_ID@MytoolsDescriptor@sanct@@2HB
    ?MAX_READ_ATTEMPTS@LicenseFileHelper@sanct@@2HB @310 ; ?MAX_READ_ATTEMPTS@LicenseFileHelper@sanct@@2HB
    ?MIN_GROWTH@String@sanct@@0HB  @311 ; ?MIN_GROWTH@String@sanct@@0HB
    ?MIN_MYTOOL_PRODUCT_ID@MytoolsDescriptor@sanct@@2HB @312 ; ?MIN_MYTOOL_PRODUCT_ID@MytoolsDescriptor@sanct@@2HB
    ?MIN_VENDOR_ID@OrderedProductInfo@sanct@@0HB @313 ; ?MIN_VENDOR_ID@OrderedProductInfo@sanct@@0HB
    ?Mkdir@File@sanct@@SA_NABVString@2@_N@Z @314 ; ?Mkdir@File@sanct@@SA_NABVString@2@_N@Z
    ?Mkdirs@File@sanct@@QBE_NXZ    @315 ; ?Mkdirs@File@sanct@@QBE_NXZ
    ?MobileSet@Data@sanct@@2PB_WB  @316 ; ?MobileSet@Data@sanct@@2PB_WB
    ?MoveFileW@FileHelper@sanct@@SAXABVFile@2@0@Z @317 ; ?MoveFileW@FileHelper@sanct@@SAXABVFile@2@0@Z
    ?MoveFileW@FileHelper@sanct@@SAXABVFile@2@0_N@Z @318 ; ?MoveFileW@FileHelper@sanct@@SAXABVFile@2@0_N@Z
    ?MoveInvalidLicense@SlipManager@sanct@@ABE_NPBVFile@2@@Z @319 ; ?MoveInvalidLicense@SlipManager@sanct@@ABE_NPBVFile@2@@Z
    ?NA@Data@sanct@@2PB_WB         @320 ; ?NA@Data@sanct@@2PB_WB
    ?No@Data@sanct@@2VString@2@B   @321 ; ?No@Data@sanct@@2VString@2@B
    ?ONE_DAY@OrderedProductInfo@sanct@@2NB @322 ; ?ONE_DAY@OrderedProductInfo@sanct@@2NB
    ?PH_APPDATA@PathPlaceholderHelper@sanct@@0VString@2@B @323 ; ?PH_APPDATA@PathPlaceholderHelper@sanct@@0VString@2@B
    ?PH_COMMON_APPDATA@PathPlaceholderHelper@sanct@@0VString@2@B @324 ; ?PH_COMMON_APPDATA@PathPlaceholderHelper@sanct@@0VString@2@B
    ?PH_COMMON_HOME@PathPlaceholderHelper@sanct@@0VString@2@B @325 ; ?PH_COMMON_HOME@PathPlaceholderHelper@sanct@@0VString@2@B
    ?PH_HOME@PathPlaceholderHelper@sanct@@0VString@2@B @326 ; ?PH_HOME@PathPlaceholderHelper@sanct@@0VString@2@B
    ?PH_ROOTDIR@PathPlaceholderHelper@sanct@@0VString@2@B @327 ; ?PH_ROOTDIR@PathPlaceholderHelper@sanct@@0VString@2@B
    ?PRODUCT_DELIMITER@SanctLogger@sanct@@2PB_WB @328 ; ?PRODUCT_DELIMITER@SanctLogger@sanct@@2PB_WB
    ?PRODUCT_DETAILS@SanctLogger@sanct@@2PB_WB @329 ; ?PRODUCT_DETAILS@SanctLogger@sanct@@2PB_WB
    ?PUBLIC_USERS_DIR@Data@sanct@@2PB_WB @330 ; ?PUBLIC_USERS_DIR@Data@sanct@@2PB_WB
    ?Password@Data@sanct@@2PB_WB   @331 ; ?Password@Data@sanct@@2PB_WB
    ?Phone@Data@sanct@@2PB_WB      @332 ; ?Phone@Data@sanct@@2PB_WB
    ?PhoneId@Data@sanct@@2PB_WB    @333 ; ?PhoneId@Data@sanct@@2PB_WB
    ?PostalCode@Data@sanct@@2PB_WB @334 ; ?PostalCode@Data@sanct@@2PB_WB
    ?ProxyHost@Data@sanct@@2PB_WB  @335 ; ?ProxyHost@Data@sanct@@2PB_WB
    ?ProxyPort@Data@sanct@@2PB_WB  @336 ; ?ProxyPort@Data@sanct@@2PB_WB
    ?QuietlyClose@FileHelper@sanct@@SA_NAAV?$basic_ifstream@DU?$char_traits@D@std@@@std@@@Z @337 ; ?QuietlyClose@FileHelper@sanct@@SA_NAAV?$basic_ifstream@DU?$char_traits@D@std@@@std@@@Z
    ?QuietlyClose@FileHelper@sanct@@SA_NAAV?$basic_ifstream@_WU?$char_traits@_W@std@@@std@@@Z @338 ; ?QuietlyClose@FileHelper@sanct@@SA_NAAV?$basic_ifstream@_WU?$char_traits@_W@std@@@std@@@Z
    ?QuietlyClose@FileHelper@sanct@@SA_NAAV?$basic_ofstream@DU?$char_traits@D@std@@@std@@@Z @339 ; ?QuietlyClose@FileHelper@sanct@@SA_NAAV?$basic_ofstream@DU?$char_traits@D@std@@@std@@@Z
    ?QuietlyClose@FileHelper@sanct@@SA_NAAV?$basic_ofstream@_WU?$char_traits@_W@std@@@std@@@Z @340 ; ?QuietlyClose@FileHelper@sanct@@SA_NAAV?$basic_ofstream@_WU?$char_traits@_W@std@@@std@@@Z
    ?QuietlyDestroy@FileHelper@sanct@@SA_NPAV?$basic_ifstream@DU?$char_traits@D@std@@@std@@@Z @341 ; ?QuietlyDestroy@FileHelper@sanct@@SA_NPAV?$basic_ifstream@DU?$char_traits@D@std@@@std@@@Z
    ?QuietlyDestroy@FileHelper@sanct@@SA_NPAV?$basic_ifstream@_WU?$char_traits@_W@std@@@std@@@Z @342 ; ?QuietlyDestroy@FileHelper@sanct@@SA_NPAV?$basic_ifstream@_WU?$char_traits@_W@std@@@std@@@Z
    ?QuietlyDestroy@FileHelper@sanct@@SA_NPAV?$basic_ofstream@DU?$char_traits@D@std@@@std@@@Z @343 ; ?QuietlyDestroy@FileHelper@sanct@@SA_NPAV?$basic_ofstream@DU?$char_traits@D@std@@@std@@@Z
    ?QuietlyDestroy@FileHelper@sanct@@SA_NPAV?$basic_ofstream@_WU?$char_traits@_W@std@@@std@@@Z @344 ; ?QuietlyDestroy@FileHelper@sanct@@SA_NPAV?$basic_ofstream@_WU?$char_traits@_W@std@@@std@@@Z
    ?REG_KEY_LABEL@SlipManager@sanct@@0PB_WB @345 ; ?REG_KEY_LABEL@SlipManager@sanct@@0PB_WB
    ?RegProperties@Data@sanct@@2PB_WB @346 ; ?RegProperties@Data@sanct@@2PB_WB
    ?Region@Data@sanct@@2PB_WB     @347 ; ?Region@Data@sanct@@2PB_WB
    ?Release@OrderedProductInfo@sanct@@QAEXXZ @348 ; ?Release@OrderedProductInfo@sanct@@QAEXXZ
    ?ReleaseSlipManager@SlipManagerFactory@sanct@@SAXPAVSlipManager@2@@Z @349 ; ?ReleaseSlipManager@SlipManagerFactory@sanct@@SAXPAVSlipManager@2@@Z
    ?RenameTo@File@sanct@@QBE_NABV12@@Z @350 ; ?RenameTo@File@sanct@@QBE_NABV12@@Z
    ?Required@Data@sanct@@2PB_WB   @351 ; ?Required@Data@sanct@@2PB_WB
    ?SLIP_DELIMITER@Data@sanct@@2PB_WB @352 ; ?SLIP_DELIMITER@Data@sanct@@2PB_WB
    ?SLIP_EXT@Data@sanct@@2PB_WB   @353 ; ?SLIP_EXT@Data@sanct@@2PB_WB
    ?SLIP_IMPORT_DIR_TYPE@LicenseFileHelper@sanct@@2HB @354 ; ?SLIP_IMPORT_DIR_TYPE@LicenseFileHelper@sanct@@2HB
    ?SLIP_IMPORT_WARNING@SlipManager@sanct@@0PB_WB @355 ; ?SLIP_IMPORT_WARNING@SlipManager@sanct@@0PB_WB
    ?SN_LABEL@SlipManager@sanct@@0PB_WB @356 ; ?SN_LABEL@SlipManager@sanct@@0PB_WB
    ?SPACE@SanctLogger@sanct@@2PB_WB @357 ; ?SPACE@SanctLogger@sanct@@2PB_WB
    ?SetHidden@File@sanct@@QBE_NXZ @358 ; ?SetHidden@File@sanct@@QBE_NXZ
    ?SetMaxLockAttempts@FileHelper@sanct@@SAXH@Z @359 ; ?SetMaxLockAttempts@FileHelper@sanct@@SAXH@Z
    ?SetPathName@File@sanct@@QAEXABVString@2@@Z @360 ; ?SetPathName@File@sanct@@QAEXABVString@2@@Z
    ?SetPathName@File@sanct@@QAEXPB_WABVString@2@@Z @361 ; ?SetPathName@File@sanct@@QAEXPB_WABVString@2@@Z
    ?SetSecurityRights@File@sanct@@QBE_NXZ @362 ; ?SetSecurityRights@File@sanct@@QBE_NXZ
    ?SilentUnlock@FileHelper@sanct@@SAXABVFile@2@@Z @363 ; ?SilentUnlock@FileHelper@sanct@@SAXABVFile@2@@Z
    ?Star@Data@sanct@@2PB_WB       @364 ; ?Star@Data@sanct@@2PB_WB
    ?Stars@Data@sanct@@2PB_WB      @365 ; ?Stars@Data@sanct@@2PB_WB
    ?State@Data@sanct@@2PB_WB      @366 ; ?State@Data@sanct@@2PB_WB
    ?Status@MultiOperations@sanct@@SAHPAPAVSanctLicense@2@HPAH@Z @367 ; ?Status@MultiOperations@sanct@@SAHPAPAVSanctLicense@2@HPAH@Z
    ?Synch@SlipManager@sanct@@QAEXXZ @368 ; ?Synch@SlipManager@sanct@@QAEXXZ
    ?TXT_EXT@Data@sanct@@2PB_WB    @369 ; ?TXT_EXT@Data@sanct@@2PB_WB
    ?ToIntList@sanct@@YA?AV?$vector@HV?$allocator@H@std@@@std@@PB_W_W@Z @370 ; ?ToIntList@sanct@@YA?AV?$vector@HV?$allocator@H@std@@@std@@PB_W_W@Z
    ?ToStringList@sanct@@YA?AV?$vector@VString@sanct@@V?$allocator@VString@sanct@@@std@@@std@@PB_W_W@Z @371 ; ?ToStringList@sanct@@YA?AV?$vector@VString@sanct@@V?$allocator@VString@sanct@@@std@@@std@@PB_W_W@Z
    ?True@Data@sanct@@2PB_WB       @372 ; ?True@Data@sanct@@2PB_WB
    ?USER_HOME@Data@sanct@@2PB_WB  @373 ; ?USER_HOME@Data@sanct@@2PB_WB
    ?USER_NAME@Data@sanct@@2PB_WB  @374 ; ?USER_NAME@Data@sanct@@2PB_WB
    ?UnLock@File@sanct@@QBE_NXZ    @375 ; ?UnLock@File@sanct@@QBE_NXZ
    ?Unlock@FileHelper@sanct@@SAXABVFile@2@@Z @376 ; ?Unlock@FileHelper@sanct@@SAXABVFile@2@@Z
    ?UpdateDeployment@SlipManager@sanct@@QAEHPAVOrderedProductInfo@2@NPB_W1@Z @377 ; ?UpdateDeployment@SlipManager@sanct@@QAEHPAVOrderedProductInfo@2@NPB_W1@Z
    ?UseProxy@Data@sanct@@2PB_WB   @378 ; ?UseProxy@Data@sanct@@2PB_WB
    ?UseStrongFileLocking@SlipManager@sanct@@QAEX_N@Z @379 ; ?UseStrongFileLocking@SlipManager@sanct@@QAEX_N@Z
    ?UserId@Data@sanct@@2PB_WB     @380 ; ?UserId@Data@sanct@@2PB_WB
    ?VENDOR_NAME@Data@sanct@@2PB_WB @381 ; ?VENDOR_NAME@Data@sanct@@2PB_WB
    ?WebServices@Data@sanct@@2PB_WB @382 ; ?WebServices@Data@sanct@@2PB_WB
    ?Yes@Data@sanct@@2VString@2@B  @383 ; ?Yes@Data@sanct@@2VString@2@B
    ?ZERO_STRING@Data@sanct@@2PB_WB @384 ; ?ZERO_STRING@Data@sanct@@2PB_WB
    ?_Lock@FileHelper@sanct@@CA_NABVFile@2@H@Z @385 ; ?_Lock@FileHelper@sanct@@CA_NABVFile@2@H@Z
    ?_Unlock@FileHelper@sanct@@CAXABVFile@2@@Z @386 ; ?_Unlock@FileHelper@sanct@@CAXABVFile@2@@Z
    ?activeLicenseExists@SlipManager@sanct@@IAE_NHABVString@2@@Z @387 ; ?activeLicenseExists@SlipManager@sanct@@IAE_NHABVString@2@@Z
    ?addCaller@SlipManager@sanct@@QAEXH@Z @388 ; ?addCaller@SlipManager@sanct@@QAEXH@Z
    ?addElement@SVector@sanct@@QAEXPBVString@2@@Z @389 ; ?addElement@SVector@sanct@@QAEXPBVString@2@@Z
    ?addElement@Vector@sanct@@QAEXPBX@Z @390 ; ?addElement@Vector@sanct@@QAEXPBX@Z
    ?addNewGraceLaunchTimer@SlipManager@sanct@@AAEXHHHABVString@2@@Z @391 ; ?addNewGraceLaunchTimer@SlipManager@sanct@@AAEXHHHABVString@2@@Z
    ?addProductInfo@SlipManager@sanct@@AAE_NPAVOrderedProductInfo@2@@Z @392 ; ?addProductInfo@SlipManager@sanct@@AAE_NPAVOrderedProductInfo@2@@Z
    ?anyUnregistered@SlipManager@sanct@@QBE_NXZ @393 ; ?anyUnregistered@SlipManager@sanct@@QBE_NXZ
    ?append@String@sanct@@QAEAAV12@ABV12@@Z @394 ; ?append@String@sanct@@QAEAAV12@ABV12@@Z
    ?append@String@sanct@@QAEAAV12@H@Z @395 ; ?append@String@sanct@@QAEAAV12@H@Z
    ?append@String@sanct@@QAEAAV12@N@Z @396 ; ?append@String@sanct@@QAEAAV12@N@Z
    ?append@String@sanct@@QAEAAV12@PBV12@@Z @397 ; ?append@String@sanct@@QAEAAV12@PBV12@@Z
    ?append@String@sanct@@QAEAAV12@PB_WH@Z @398 ; ?append@String@sanct@@QAEAAV12@PB_WH@Z
    ?append@String@sanct@@QAEAAV12@_W@Z @399 ; ?append@String@sanct@@QAEAAV12@_W@Z
    ?attemptLicenseUpdate@SlipManager@sanct@@QAEXPAVIUpdatePrefs@2@HVString@2@PAVILicenseUpdateCallback@2@@Z @400 ; ?attemptLicenseUpdate@SlipManager@sanct@@QAEXPAVIUpdatePrefs@2@HVString@2@PAVILicenseUpdateCallback@2@@Z
    ?attemptLicenseUpdate@SlipManager@sanct@@QAEXPAVIUpdatePrefs@2@VString@2@PAVILicenseUpdateCallback@2@@Z @401 ; ?attemptLicenseUpdate@SlipManager@sanct@@QAEXPAVIUpdatePrefs@2@VString@2@PAVILicenseUpdateCallback@2@@Z
    ?bytes_to_chars@StringConv@sanct@@0PAP6AIPA_WPBDI@ZA @402 ; ?bytes_to_chars@StringConv@sanct@@0PAP6AIPA_WPBDI@ZA
    ?cancel@SlipManager@sanct@@QAEXXZ @403 ; ?cancel@SlipManager@sanct@@QAEXXZ
    ?changeBorrower@OrderedProductInfo@sanct@@QAEXABVSanctLicense@2@@Z @404 ; ?changeBorrower@OrderedProductInfo@sanct@@QAEXABVSanctLicense@2@@Z
    ?chars_to_bytes@StringConv@sanct@@0PAP6AIPADPB_WI@ZA @405 ; ?chars_to_bytes@StringConv@sanct@@0PAP6AIPADPB_WI@ZA
    ?checkDates@OrderedProductInfo@sanct@@QAEXXZ @406 ; ?checkDates@OrderedProductInfo@sanct@@QAEXXZ
    ?checkDates@SlipManager@sanct@@AAEXPAVOrderedProductInfo@2@_N@Z @407 ; ?checkDates@SlipManager@sanct@@AAEXPAVOrderedProductInfo@2@_N@Z
    ?checkDates@SlipManager@sanct@@AAEXXZ @408 ; ?checkDates@SlipManager@sanct@@AAEXXZ
    ?checkLock@SlipManager@sanct@@AAEXXZ @409 ; ?checkLock@SlipManager@sanct@@AAEXXZ
    ?checkNodeLock@SlipManager@sanct@@AAEXXZ @410 ; ?checkNodeLock@SlipManager@sanct@@AAEXXZ
    ?checkProductInfoMap@SlipManager@sanct@@AAEXXZ @411 ; ?checkProductInfoMap@SlipManager@sanct@@AAEXXZ
    ?checkTimeAPI@SlipManager@sanct@@IAEXXZ @412 ; ?checkTimeAPI@SlipManager@sanct@@IAEXXZ
    ?checkUserLock@SlipManager@sanct@@AAEXXZ @413 ; ?checkUserLock@SlipManager@sanct@@AAEXXZ
    ?cleanup@SVector@sanct@@AAEXXZ @414 ; ?cleanup@SVector@sanct@@AAEXXZ
    ?clear@SVector@sanct@@UAEXXZ   @415 ; ?clear@SVector@sanct@@UAEXXZ
    ?clear@SlipManager@sanct@@UAEXXZ @416 ; ?clear@SlipManager@sanct@@UAEXXZ
    ?clear@SortedSMap@sanct@@QAEXXZ @417 ; ?clear@SortedSMap@sanct@@QAEXXZ
    ?clear@String@sanct@@AAEXXZ    @418 ; ?clear@String@sanct@@AAEXXZ
    ?clear@StringConv@sanct@@AAEXXZ @419 ; ?clear@StringConv@sanct@@AAEXXZ
    ?clear@Vector@sanct@@UAEXXZ    @420 ; ?clear@Vector@sanct@@UAEXXZ
    ?clearAddOnInfos@SlipManager@sanct@@AAEXPAVSortedOMap@2@@Z @421 ; ?clearAddOnInfos@SlipManager@sanct@@AAEXPAVSortedOMap@2@@Z
    ?clearLogicallyRemovedPiSet@SlipManager@sanct@@AAEXXZ @422 ; ?clearLogicallyRemovedPiSet@SlipManager@sanct@@AAEXXZ
    ?clearNoDelete@Vector@sanct@@UAEXXZ @423 ; ?clearNoDelete@Vector@sanct@@UAEXXZ
    ?clearProductInfos@SlipManager@sanct@@AAEXPAVSortedOMap@2@@Z @424 ; ?clearProductInfos@SlipManager@sanct@@AAEXPAVSortedOMap@2@@Z
    ?clearSerials@SlipManager@sanct@@AAEXPAVSortedOMap@2@@Z @425 ; ?clearSerials@SlipManager@sanct@@AAEXPAVSortedOMap@2@@Z
    ?clearSlips@SlipManager@sanct@@AAEXXZ @426 ; ?clearSlips@SlipManager@sanct@@AAEXXZ
    ?clearTimers@SlipManager@sanct@@AAEXPAVSortedOMap@2@@Z @427 ; ?clearTimers@SlipManager@sanct@@AAEXPAVSortedOMap@2@@Z
    ?clearWarningCache@SlipManager@sanct@@QAEXXZ @428 ; ?clearWarningCache@SlipManager@sanct@@QAEXXZ
    ?clearWarnings@SlipManager@sanct@@AAEXXZ @429 ; ?clearWarnings@SlipManager@sanct@@AAEXXZ
    ?commercialLabel@Data@sanct@@2QAY0EA@$$CB_WA @430 ; ?commercialLabel@Data@sanct@@2QAY0EA@$$CB_WA
    ?compare@String@sanct@@QBEHABV12@@Z @431 ; ?compare@String@sanct@@QBEHABV12@@Z
    ?compareProducts@SlipManager@sanct@@QBEHPAVOrderedProductInfo@2@0@Z @432 ; ?compareProducts@SlipManager@sanct@@QBEHPAVOrderedProductInfo@2@0@Z
    ?compareUpdateLevels@OrderedProductInfo@sanct@@IBE_NPBVString@2@0@Z @433 ; ?compareUpdateLevels@OrderedProductInfo@sanct@@IBE_NPBVString@2@0@Z
    ?computeGUID@Csanctutil@sanct@@AAE?AV?$basic_string@_WU?$char_traits@_W@std@@V?$allocator@_W@2@@std@@V?$basic_string@DU?$char_traits@D@std@@V?$allocator@D@2@@4@00@Z @434 ; ?computeGUID@Csanctutil@sanct@@AAE?AV?$basic_string@_WU?$char_traits@_W@std@@V?$allocator@_W@2@@std@@V?$basic_string@DU?$char_traits@D@std@@V?$allocator@D@2@@4@00@Z
    ?computeRuntimeAttributes@SlipManager@sanct@@AAEXPAVOrderedProductInfo@2@PBVSignedSlip@2@@Z @435 ; ?computeRuntimeAttributes@SlipManager@sanct@@AAEXPAVOrderedProductInfo@2@PBVSignedSlip@2@@Z
    ?configSilentActivation@SlipManager@sanct@@QAEX_NPAVILicenseRenewalCallback@2@PAVILicenseRenewalPrefs@2@@Z @436 ; ?configSilentActivation@SlipManager@sanct@@QAEX_NPAVILicenseRenewalCallback@2@PAVILicenseRenewalPrefs@2@@Z
    ?contains@Vector@sanct@@QBE_NPBX@Z @437 ; ?contains@Vector@sanct@@QBE_NPBX@Z
    ?containsDescendent@SlipManager@sanct@@CA_NPAVSignedSlip@2@PAVOrderedProductInfo@2@@Z @438 ; ?containsDescendent@SlipManager@sanct@@CA_NPAVSignedSlip@2@PAVOrderedProductInfo@2@@Z
    ?containsKey@SortedSMap@sanct@@QBE_NABVString@2@@Z @439 ; ?containsKey@SortedSMap@sanct@@QBE_NABVString@2@@Z
    ?copySlip@SlipManager@sanct@@AAEXABVFile@2@@Z @440 ; ?copySlip@SlipManager@sanct@@AAEXABVFile@2@@Z
    ?corrupt@SlipManager@sanct@@AAE_N_N@Z @441 ; ?corrupt@SlipManager@sanct@@AAE_N_N@Z
    ?counter@File@sanct@@0HA       @442 ; ?counter@File@sanct@@0HA
    ?decode@SlipManager@sanct@@ABEHPADH@Z @443 ; ?decode@SlipManager@sanct@@ABEHPADH@Z
    ?decode@SlipManager@sanct@@ABEHPAVByteArrayOutputStream@2@H@Z @444 ; ?decode@SlipManager@sanct@@ABEHPAVByteArrayOutputStream@2@H@Z
    ?defaultGracePeriod@LicenseFactory@sanct@@2NB @445 ; ?defaultGracePeriod@LicenseFactory@sanct@@2NB
    ?defaultInterval@LicenseFactory@sanct@@2NB @446 ; ?defaultInterval@LicenseFactory@sanct@@2NB
    ?deleteCriticalSection@Csanctutil@sanct@@AAEXXZ @447 ; ?deleteCriticalSection@Csanctutil@sanct@@AAEXXZ
    ?descendantOf@OrderedProductInfo@sanct@@QBE_NPBV12@@Z @448 ; ?descendantOf@OrderedProductInfo@sanct@@QBE_NPBV12@@Z
    ?disownProductInfos@SlipManager@sanct@@AAEXPBVSignedSlip@2@@Z @449 ; ?disownProductInfos@SlipManager@sanct@@AAEXPBVSignedSlip@2@@Z
    ?div@SlipManager@sanct@@ABEHHH@Z @450 ; ?div@SlipManager@sanct@@ABEHHH@Z
    ?dumpAttributes@SlipManager@sanct@@ABEXAAVSanctLogger@2@AAVVector@2@PBVOrderedProductInfo@2@_N@Z @451 ; ?dumpAttributes@SlipManager@sanct@@ABEXAAVSanctLogger@2@AAVVector@2@PBVOrderedProductInfo@2@_N@Z
    ?dumpSlipHeader@SlipManager@sanct@@ABEXPAVSignedSlip@2@AAVSanctLogger@2@@Z @452 ; ?dumpSlipHeader@SlipManager@sanct@@ABEXPAVSignedSlip@2@AAVSanctLogger@2@@Z
    ?dumpTimers@SlipManager@sanct@@ABEXAAVSanctLogger@2@@Z @453 ; ?dumpTimers@SlipManager@sanct@@ABEXAAVSanctLogger@2@@Z
    ?dumpUnregisteredSerialNumbers@SlipManager@sanct@@ABEXAAVSanctLogger@2@@Z @454 ; ?dumpUnregisteredSerialNumbers@SlipManager@sanct@@ABEXAAVSanctLogger@2@@Z
    ?encode@SlipManager@sanct@@ABEHPADH@Z @455 ; ?encode@SlipManager@sanct@@ABEHPADH@Z
    ?encryptLock@SlipManager@sanct@@ABEXAAVString@2@@Z @456 ; ?encryptLock@SlipManager@sanct@@ABEXAAVString@2@@Z
    ?endsWith@String@sanct@@QBE_NABV12@@Z @457 ; ?endsWith@String@sanct@@QBE_NABV12@@Z
    ?endsWith@String@sanct@@QBE_NPB_W@Z @458 ; ?endsWith@String@sanct@@QBE_NPB_W@Z
    ?ensureCap@SortedSMap@sanct@@AAEXH@Z @459 ; ?ensureCap@SortedSMap@sanct@@AAEXH@Z
    ?ensureCap@String@sanct@@AAEXH@Z @460 ; ?ensureCap@String@sanct@@AAEXH@Z
    ?ensureCap@Vector@sanct@@IAEXH@Z @461 ; ?ensureCap@Vector@sanct@@IAEXH@Z
    ?equals@String@sanct@@QBE_NABV12@@Z @462 ; ?equals@String@sanct@@QBE_NABV12@@Z
    ?equals@String@sanct@@QBE_NPBV12@@Z @463 ; ?equals@String@sanct@@QBE_NPBV12@@Z
    ?equals@String@sanct@@QBE_NPB_W@Z @464 ; ?equals@String@sanct@@QBE_NPB_W@Z
    ?equalsIgnoreCase@String@sanct@@QBE_NABV12@@Z @465 ; ?equalsIgnoreCase@String@sanct@@QBE_NABV12@@Z
    ?equalsIgnoreCase@String@sanct@@QBE_NPBV12@@Z @466 ; ?equalsIgnoreCase@String@sanct@@QBE_NPBV12@@Z
    ?equalsIgnoreCase@String@sanct@@QBE_NPB_W@Z @467 ; ?equalsIgnoreCase@String@sanct@@QBE_NPB_W@Z
    ?error@SanctLogger@sanct@@QAEXABVSlipException@2@@Z @468 ; ?error@SanctLogger@sanct@@QAEXABVSlipException@2@@Z
    ?error@SanctLogger@sanct@@QAEXPB_WABVSlipException@2@@Z @469 ; ?error@SanctLogger@sanct@@QAEXPB_WABVSlipException@2@@Z
    ?extractSlips@SlipManager@sanct@@AAEXAAV?$basic_ifstream@DU?$char_traits@D@std@@@std@@JAAVSVector@2@@Z @470 ; ?extractSlips@SlipManager@sanct@@AAEXAAV?$basic_ifstream@DU?$char_traits@D@std@@@std@@JAAVSVector@2@@Z
    ?fill@Directory@sanct@@AAEXPB_W@Z @471 ; ?fill@Directory@sanct@@AAEXPB_W@Z
    ?filterRenewables@LicenseRenewalPrefs@sanct@@UAEXABVVector@2@AAV32@@Z @472 ; ?filterRenewables@LicenseRenewalPrefs@sanct@@UAEXABVVector@2@AAV32@@Z
    ?finalizeProductInfo@SlipManager@sanct@@QAEXABVString@2@PAVOrderedProductInfo@2@@Z @473 ; ?finalizeProductInfo@SlipManager@sanct@@QAEXABVString@2@PAVOrderedProductInfo@2@@Z
    ?finalizeProductInfo@SlipManager@sanct@@QAEXPAVOrderedProductInfo@2@@Z @474 ; ?finalizeProductInfo@SlipManager@sanct@@QAEXPAVOrderedProductInfo@2@@Z
    ?find@SortedSMap@sanct@@ABEHABVString@2@@Z @475 ; ?find@SortedSMap@sanct@@ABEHABVString@2@@Z
    ?find@String@sanct@@QBEHPB_W@Z @476 ; ?find@String@sanct@@QBEHPB_W@Z
    ?find@String@sanct@@QBEHPB_WH@Z @477 ; ?find@String@sanct@@QBEHPB_WH@Z
    ?find@String@sanct@@QBEH_W@Z   @478 ; ?find@String@sanct@@QBEH_W@Z
    ?findBackupFile@LicenseFileHelper@sanct@@AAEPBVFile@2@XZ @479 ; ?findBackupFile@LicenseFileHelper@sanct@@AAEPBVFile@2@XZ
    ?findFirstNotOf@String@sanct@@QBEHABV12@H@Z @480 ; ?findFirstNotOf@String@sanct@@QBEHABV12@H@Z
    ?findFirstOf@String@sanct@@QBEHABV12@H@Z @481 ; ?findFirstOf@String@sanct@@QBEHABV12@H@Z
    ?findLicenseFile@LicenseFileHelper@sanct@@QAEPBVFile@2@XZ @482 ; ?findLicenseFile@LicenseFileHelper@sanct@@QAEPBVFile@2@XZ
    ?findMatchingSerial@SlipManager@sanct@@ABEPBVSerial@2@XZ @483 ; ?findMatchingSerial@SlipManager@sanct@@ABEPBVSerial@2@XZ
    ?findProductInfo@LicenseRenewalPrefs@sanct@@MAEPBVOrderedProductInfo@2@ABVVector@2@@Z @484 ; ?findProductInfo@LicenseRenewalPrefs@sanct@@MAEPBVOrderedProductInfo@2@ABVVector@2@@Z
    ?finish@SanctLogger@sanct@@QAEXXZ @485 ; ?finish@SanctLogger@sanct@@QAEXXZ
    ?fixend@File@sanct@@CAXVString@2@AAV32@@Z @486 ; ?fixend@File@sanct@@CAXVString@2@AAV32@@Z
    ?get@SortedSMap@sanct@@QBEPBVString@2@ABV32@@Z @487 ; ?get@SortedSMap@sanct@@QBEPBVString@2@ABV32@@Z
    ?get@Vector@sanct@@QBEPBXH@Z   @488 ; ?get@Vector@sanct@@QBEPBXH@Z
    ?getAddOnInfoSet@SlipManager@sanct@@ABEXPAVVector@2@@Z @489 ; ?getAddOnInfoSet@SlipManager@sanct@@ABEXPAVVector@2@@Z
    ?getAddOnProductInfo@SlipManager@sanct@@ABEPAVOrderedProductInfo@2@HHPBVString@2@@Z @490 ; ?getAddOnProductInfo@SlipManager@sanct@@ABEPAVOrderedProductInfo@2@HHPBVString@2@@Z
    ?getAddOnProductInfoSet@SlipManager@sanct@@QAEXPAVVector@2@HH_N@Z @491 ; ?getAddOnProductInfoSet@SlipManager@sanct@@QAEXPAVVector@2@HH_N@Z
    ?getApplicableProductInfoSet@SlipManager@sanct@@ABEXPAVVector@2@@Z @492 ; ?getApplicableProductInfoSet@SlipManager@sanct@@ABEXPAVVector@2@@Z
    ?getAt@SVector@sanct@@QBEPBVString@2@H@Z @493 ; ?getAt@SVector@sanct@@QBEPBVString@2@H@Z
    ?getAt@String@sanct@@QBE_WH@Z  @494 ; ?getAt@String@sanct@@QBE_WH@Z
    ?getAttributeLabel@OrderedProductInfo@sanct@@ABEPBVString@2@ABV32@@Z @495 ; ?getAttributeLabel@OrderedProductInfo@sanct@@ABEPBVString@2@ABV32@@Z
    ?getAttributeValue@OrderedProductInfo@sanct@@QBEPBVString@2@ABV32@@Z @496 ; ?getAttributeValue@OrderedProductInfo@sanct@@QBEPBVString@2@ABV32@@Z
    ?getBorrowStoreName@OrderedProductInfo@sanct@@QBEXPAVString@2@@Z @497 ; ?getBorrowStoreName@OrderedProductInfo@sanct@@QBEXPAVString@2@@Z
    ?getBorrowedMillisLeft@OrderedProductInfo@sanct@@QAENXZ @498 ; ?getBorrowedMillisLeft@OrderedProductInfo@sanct@@QAENXZ
    ?getBorrower@OrderedProductInfo@sanct@@QBEPAVBorrower@2@XZ @499 ; ?getBorrower@OrderedProductInfo@sanct@@QBEPAVBorrower@2@XZ
    ?getBytes@StringConv@sanct@@QAEPBDW4Encoding@12@@Z @500 ; ?getBytes@StringConv@sanct@@QAEPBDW4Encoding@12@@Z
    ?getCertIdSlipSet@SlipManager@sanct@@QBEXAAVVector@2@PBVString@2@@Z @501 ; ?getCertIdSlipSet@SlipManager@sanct@@QBEXAAVVector@2@PBVString@2@@Z
    ?getChars@String@sanct@@QBEPB_WXZ @502 ; ?getChars@String@sanct@@QBEPB_WXZ
    ?getChars@StringConv@sanct@@QAEPB_WXZ @503 ; ?getChars@StringConv@sanct@@QAEPB_WXZ
    ?getCheckInPolicyGracePeriod@CheckinPolicyUtil@sanct@@SAHXZ @504 ; ?getCheckInPolicyGracePeriod@CheckinPolicyUtil@sanct@@SAHXZ
    ?getCode@SlipException@sanct@@QBEHXZ @505 ; ?getCode@SlipException@sanct@@QBEHXZ
    ?getCurrentProductInfo@SlipManager@sanct@@ABEPAVOrderedProductInfo@2@HH@Z @506 ; ?getCurrentProductInfo@SlipManager@sanct@@ABEPAVOrderedProductInfo@2@HH@Z
    ?getCurrentProductInfo@SlipManager@sanct@@ABEPAVOrderedProductInfo@2@HHPBVString@2@@Z @507 ; ?getCurrentProductInfo@SlipManager@sanct@@ABEPAVOrderedProductInfo@2@HHPBVString@2@@Z
    ?getCurrentUpdateLevel@OrderedProductInfo@sanct@@QBEPBVString@2@XZ @508 ; ?getCurrentUpdateLevel@OrderedProductInfo@sanct@@QBEPBVString@2@XZ
    ?getCustomAttributeValue@OrderedProductInfo@sanct@@QBEPBVString@2@ABV32@@Z @509 ; ?getCustomAttributeValue@OrderedProductInfo@sanct@@QBEPBVString@2@ABV32@@Z
    ?getCustomAttributes@OrderedProductInfo@sanct@@QBEXPAVVector@2@@Z @510 ; ?getCustomAttributes@OrderedProductInfo@sanct@@QBEXPAVVector@2@@Z
    ?getCustomSize@OrderedProductInfo@sanct@@QBEHXZ @511 ; ?getCustomSize@OrderedProductInfo@sanct@@QBEHXZ
    ?getDateCreated@OrderedProductInfo@sanct@@QBENXZ @512 ; ?getDateCreated@OrderedProductInfo@sanct@@QBENXZ
    ?getDaysLeft@OrderedProductInfo@sanct@@QBEHXZ @513 ; ?getDaysLeft@OrderedProductInfo@sanct@@QBEHXZ
    ?getDefaultDir@SlipManager@sanct@@QBEABVString@2@XZ @514 ; ?getDefaultDir@SlipManager@sanct@@QBEABVString@2@XZ
    ?getESlipRenewalDays@OrderedProductInfo@sanct@@QBEHXZ @515 ; ?getESlipRenewalDays@OrderedProductInfo@sanct@@QBEHXZ
    ?getESlipRenewalInterval@OrderedProductInfo@sanct@@QBENXZ @516 ; ?getESlipRenewalInterval@OrderedProductInfo@sanct@@QBENXZ
    ?getEncodingSeed@SlipManager@sanct@@ABEHXZ @517 ; ?getEncodingSeed@SlipManager@sanct@@ABEHXZ
    ?getError@SlipException@sanct@@QBEHPAUsanct_error@@@Z @518 ; ?getError@SlipException@sanct@@QBEHPAUsanct_error@@@Z
    ?getError@SlipException@sanct@@QBEPBUsanct_error@@XZ @519 ; ?getError@SlipException@sanct@@QBEPBUsanct_error@@XZ
    ?getExpDate@OrderedProductInfo@sanct@@QBENXZ @520 ; ?getExpDate@OrderedProductInfo@sanct@@QBENXZ
    ?getExpDays@OrderedProductInfo@sanct@@QBENXZ @521 ; ?getExpDays@OrderedProductInfo@sanct@@QBENXZ
    ?getFilteredProductInfoSet@SlipManager@sanct@@IBEXPAVVector@2@H@Z @522 ; ?getFilteredProductInfoSet@SlipManager@sanct@@IBEXPAVVector@2@H@Z
    ?getFirstUsed@OrderedProductInfo@sanct@@QBENXZ @523 ; ?getFirstUsed@OrderedProductInfo@sanct@@QBENXZ
    ?getFormatValue@SlipException@sanct@@QBEPB_WXZ @524 ; ?getFormatValue@SlipException@sanct@@QBEPB_WXZ
    ?getGraceLaunchAttemptCount@SlipManager@sanct@@QBEHHH@Z @525 ; ?getGraceLaunchAttemptCount@SlipManager@sanct@@QBEHHH@Z
    ?getHighRiskWarnings@SlipManager@sanct@@QAEXPAVVector@2@@Z @526 ; ?getHighRiskWarnings@SlipManager@sanct@@QAEXPAVVector@2@@Z
    ?getHomeDir@SlipManager@sanct@@ABEPB_WXZ @527 ; ?getHomeDir@SlipManager@sanct@@ABEPB_WXZ
    ?getHostProductId@OrderedProductInfo@sanct@@QBEHXZ @528 ; ?getHostProductId@OrderedProductInfo@sanct@@QBEHXZ
    ?getHostSkuId@OrderedProductInfo@sanct@@QBEHXZ @529 ; ?getHostSkuId@OrderedProductInfo@sanct@@QBEHXZ
    ?getInfoDir@LicenseFileHelper@sanct@@QAEPBVFile@2@XZ @530 ; ?getInfoDir@LicenseFileHelper@sanct@@QAEPBVFile@2@XZ
    ?getInfoFileName@SlipManager@sanct@@QAEPB_WXZ @531 ; ?getInfoFileName@SlipManager@sanct@@QAEPB_WXZ
    ?getIntValue@OrderedProductInfo@sanct@@ABEHABVString@2@@Z @532 ; ?getIntValue@OrderedProductInfo@sanct@@ABEHABVString@2@@Z
    ?getLastUsed@OrderedProductInfo@sanct@@QBENXZ @533 ; ?getLastUsed@OrderedProductInfo@sanct@@QBENXZ
    ?getLicenseSelectionFilter@SlipManager@sanct@@IBEPAVLicenseFilter@2@H@Z @534 ; ?getLicenseSelectionFilter@SlipManager@sanct@@IBEPAVLicenseFilter@2@H@Z
    ?getLicenseType@OrderedProductInfo@sanct@@QBEHXZ @535 ; ?getLicenseType@OrderedProductInfo@sanct@@QBEHXZ
    ?getLock@SlipManager@sanct@@QBEXAAVString@2@@Z @536 ; ?getLock@SlipManager@sanct@@QBEXAAVString@2@@Z
    ?getLockType@SlipManager@sanct@@QBEHXZ @537 ; ?getLockType@SlipManager@sanct@@QBEHXZ
    ?getLongValue@OrderedProductInfo@sanct@@ABENABVString@2@@Z @538 ; ?getLongValue@OrderedProductInfo@sanct@@ABENABVString@2@@Z
    ?getLserverStatus@OrderedProductInfo@sanct@@QBEHXZ @539 ; ?getLserverStatus@OrderedProductInfo@sanct@@QBEHXZ
    ?getLserverType@OrderedProductInfo@sanct@@QBEHXZ @540 ; ?getLserverType@OrderedProductInfo@sanct@@QBEHXZ
    ?getMachineInfo@SlipManager@sanct@@QAE?AVMachineInfo@2@XZ @541 ; ?getMachineInfo@SlipManager@sanct@@QAE?AVMachineInfo@2@XZ
    ?getManager@ElHandler@sanct@@QAEPAVSlipManager@2@XZ @542 ; ?getManager@ElHandler@sanct@@QAEPAVSlipManager@2@XZ
    ?getMaxGraceLaunchCount@OrderedProductInfo@sanct@@QBEHXZ @543 ; ?getMaxGraceLaunchCount@OrderedProductInfo@sanct@@QBEHXZ
    ?getMaxGraceLaunchCount@SlipManager@sanct@@QAEHHH@Z @544 ; ?getMaxGraceLaunchCount@SlipManager@sanct@@QAEHHH@Z
    ?getMyToolsStubProductInfoSet@SlipManager@sanct@@QBEXPAVVector@2@@Z @545 ; ?getMyToolsStubProductInfoSet@SlipManager@sanct@@QBEXPAVVector@2@@Z
    ?getMyToolsStubProductInfoSetCount@SlipManager@sanct@@QBEHXZ @546 ; ?getMyToolsStubProductInfoSetCount@SlipManager@sanct@@QBEHXZ
    ?getName@SlipManager@sanct@@ABEPB_WXZ @547 ; ?getName@SlipManager@sanct@@ABEPB_WXZ
    ?getNames@SortedSMap@sanct@@QBEXPAVVector@2@@Z @548 ; ?getNames@SortedSMap@sanct@@QBEXPAVVector@2@@Z
    ?getNodeLock@SlipManager@sanct@@ABEXAAVString@2@@Z @549 ; ?getNodeLock@SlipManager@sanct@@ABEXAAVString@2@@Z
    ?getNonCommercialLabel@OrderedProductInfo@sanct@@QBEPBVString@2@XZ @550 ; ?getNonCommercialLabel@OrderedProductInfo@sanct@@QBEPBVString@2@XZ
    ?getOwnerPackage@OrderedProductInfo@sanct@@QBEPBVSignedSlip@2@XZ @551 ; ?getOwnerPackage@OrderedProductInfo@sanct@@QBEPBVSignedSlip@2@XZ
    ?getPlatformId@OrderedProductInfo@sanct@@QBEHXZ @552 ; ?getPlatformId@OrderedProductInfo@sanct@@QBEHXZ
    ?getPlatformLabel@Data@sanct@@SAPB_WH@Z @553 ; ?getPlatformLabel@Data@sanct@@SAPB_WH@Z
    ?getPlatformName@OrderedProductInfo@sanct@@QBEPBVString@2@XZ @554 ; ?getPlatformName@OrderedProductInfo@sanct@@QBEPBVString@2@XZ
    ?getPoolVersion@OrderedProductInfo@sanct@@QBEHXZ @555 ; ?getPoolVersion@OrderedProductInfo@sanct@@QBEHXZ
    ?getProduct@OrderedProductInfo@sanct@@QBEPBVString@2@XZ @556 ; ?getProduct@OrderedProductInfo@sanct@@QBEPBVString@2@XZ
    ?getProductId@MytoolsDescriptor@sanct@@QBEHXZ @557 ; ?getProductId@MytoolsDescriptor@sanct@@QBEHXZ
    ?getProductId@OrderedProductInfo@sanct@@QBEHXZ @558 ; ?getProductId@OrderedProductInfo@sanct@@QBEHXZ
    ?getProductIdLabel@MytoolsDescriptor@sanct@@QBEABVString@2@XZ @559 ; ?getProductIdLabel@MytoolsDescriptor@sanct@@QBEABVString@2@XZ
    ?getProductIdLabel@OrderedProductInfo@sanct@@QAEPBVString@2@XZ @560 ; ?getProductIdLabel@OrderedProductInfo@sanct@@QAEPBVString@2@XZ
    ?getProductInfo@SlipManager@sanct@@QBEPAVOrderedProductInfo@2@PBVProductTimer@2@@Z @561 ; ?getProductInfo@SlipManager@sanct@@QBEPAVOrderedProductInfo@2@PBVProductTimer@2@@Z
    ?getProductInfo@SlipManager@sanct@@UAEPAVOrderedProductInfo@2@HH@Z @562 ; ?getProductInfo@SlipManager@sanct@@UAEPAVOrderedProductInfo@2@HH@Z
    ?getProductInfoCount@SlipManager@sanct@@ABEH_N@Z @563 ; ?getProductInfoCount@SlipManager@sanct@@ABEH_N@Z
    ?getProductInfoSet@SlipManager@sanct@@ABEXPAVVector@2@_N@Z @564 ; ?getProductInfoSet@SlipManager@sanct@@ABEXPAVVector@2@_N@Z
    ?getProductInfoSet@SlipManager@sanct@@QBEXPAVVector@2@@Z @565 ; ?getProductInfoSet@SlipManager@sanct@@QBEXPAVVector@2@@Z
    ?getProductInfoSet@SlipManager@sanct@@QBEXPAVVector@2@ABV?$list@PAVLicenseFilter@sanct@@V?$allocator@PAVLicenseFilter@sanct@@@std@@@std@@@Z @566 ; ?getProductInfoSet@SlipManager@sanct@@QBEXPAVVector@2@ABV?$list@PAVLicenseFilter@sanct@@V?$allocator@PAVLicenseFilter@sanct@@@std@@@std@@@Z
    ?getProductInfoSet@SlipManager@sanct@@QBEXPAVVector@2@ABVString@2@@Z @567 ; ?getProductInfoSet@SlipManager@sanct@@QBEXPAVVector@2@ABVString@2@@Z
    ?getProductInfoSet@SlipManager@sanct@@QBEXPAVVector@2@H_N@Z @568 ; ?getProductInfoSet@SlipManager@sanct@@QBEXPAVVector@2@H_N@Z
    ?getProductInfoSet@SlipManager@sanct@@QBEXPAVVector@2@PBVLicenseFilter@2@@Z @569 ; ?getProductInfoSet@SlipManager@sanct@@QBEXPAVVector@2@PBVLicenseFilter@2@@Z
    ?getProductInfoSetCount@SlipManager@sanct@@QBEHXZ @570 ; ?getProductInfoSetCount@SlipManager@sanct@@QBEHXZ
    ?getProductTimerSet@SlipManager@sanct@@ABEXPAVVector@2@@Z @571 ; ?getProductTimerSet@SlipManager@sanct@@ABEXPAVVector@2@@Z
    ?getRandomKey@OrderedProductInfo@sanct@@QBEPBVString@2@XZ @572 ; ?getRandomKey@OrderedProductInfo@sanct@@QBEPBVString@2@XZ
    ?getRegBinaryValue@Csanctutil@sanct@@AAE_NPB_WPAPADPAK@Z @573 ; ?getRegBinaryValue@Csanctutil@sanct@@AAE_NPB_WPAPADPAK@Z
    ?getRegistrationKey@SlipManager@sanct@@QAEHXZ @574 ; ?getRegistrationKey@SlipManager@sanct@@QAEHXZ
    ?getRenewableProductInfoSet@SlipManager@sanct@@ABEXPAVVector@2@V?$set@HU?$less@H@std@@V?$allocator@H@2@@std@@_N@Z @575 ; ?getRenewableProductInfoSet@SlipManager@sanct@@ABEXPAVVector@2@V?$set@HU?$less@H@std@@V?$allocator@H@2@@std@@_N@Z
    ?getRenewalDuration@LicenseRenewalPrefs@sanct@@UAENABVVector@2@N@Z @576 ; ?getRenewalDuration@LicenseRenewalPrefs@sanct@@UAENABVVector@2@N@Z
    ?getRenewalExpiration@LicenseRenewalPrefs@sanct@@UAENABVVector@2@N@Z @577 ; ?getRenewalExpiration@LicenseRenewalPrefs@sanct@@UAENABVVector@2@N@Z
    ?getRenewalInterval@LicenseRenewalPrefs@sanct@@UAENABVVector@2@N@Z @578 ; ?getRenewalInterval@LicenseRenewalPrefs@sanct@@UAENABVVector@2@N@Z
    ?getRootDir@SlipManager@sanct@@QBEABVString@2@XZ @579 ; ?getRootDir@SlipManager@sanct@@QBEABVString@2@XZ
    ?getScore@SlipManager@sanct@@ABEHPAVOrderedProductInfo@2@@Z @580 ; ?getScore@SlipManager@sanct@@ABEHPAVOrderedProductInfo@2@@Z
    ?getSerialNo@OrderedProductInfo@sanct@@QBEPBVString@2@XZ @581 ; ?getSerialNo@OrderedProductInfo@sanct@@QBEPBVString@2@XZ
    ?getSerialSet@SlipManager@sanct@@ABEXAAVSVector@2@H_N@Z @582 ; ?getSerialSet@SlipManager@sanct@@ABEXAAVSVector@2@H_N@Z
    ?getSessionId@SlipManager@sanct@@UAEHXZ @583 ; ?getSessionId@SlipManager@sanct@@UAEHXZ
    ?getSessionIdStr@SlipManager@sanct@@QAEPB_WXZ @584 ; ?getSessionIdStr@SlipManager@sanct@@QAEPB_WXZ
    ?getSku@OrderedProductInfo@sanct@@QBEPBVString@2@XZ @585 ; ?getSku@OrderedProductInfo@sanct@@QBEPBVString@2@XZ
    ?getSkuId@MytoolsDescriptor@sanct@@QBEHXZ @586 ; ?getSkuId@MytoolsDescriptor@sanct@@QBEHXZ
    ?getSkuId@OrderedProductInfo@sanct@@QBEHXZ @587 ; ?getSkuId@OrderedProductInfo@sanct@@QBEHXZ
    ?getSkuIdLabel@MytoolsDescriptor@sanct@@QBEABVString@2@XZ @588 ; ?getSkuIdLabel@MytoolsDescriptor@sanct@@QBEABVString@2@XZ
    ?getSkuLabel@OrderedProductInfo@sanct@@QAEPBVString@2@XZ @589 ; ?getSkuLabel@OrderedProductInfo@sanct@@QAEPBVString@2@XZ
    ?getSlipFiles@SlipManager@sanct@@AAEXAAVVector@2@VString@2@@Z @590 ; ?getSlipFiles@SlipManager@sanct@@AAEXAAVVector@2@VString@2@@Z
    ?getSlipImportDir@SlipManager@sanct@@QBEABVString@2@XZ @591 ; ?getSlipImportDir@SlipManager@sanct@@QBEABVString@2@XZ
    ?getSlipSet@SlipManager@sanct@@QBEXAAVVector@2@@Z @592 ; ?getSlipSet@SlipManager@sanct@@QBEXAAVVector@2@@Z
    ?getSlipSet@SlipManager@sanct@@QBEXAAVVector@2@PBVString@2@@Z @593 ; ?getSlipSet@SlipManager@sanct@@QBEXAAVVector@2@PBVString@2@@Z
    ?getStandardAttributes@OrderedProductInfo@sanct@@QBEXPAVVector@2@@Z @594 ; ?getStandardAttributes@OrderedProductInfo@sanct@@QBEXPAVVector@2@@Z
    ?getStatus@SlipManager@sanct@@QAEHHH@Z @595 ; ?getStatus@SlipManager@sanct@@QAEHHH@Z
    ?getStdSize@OrderedProductInfo@sanct@@QBEHXZ @596 ; ?getStdSize@OrderedProductInfo@sanct@@QBEHXZ
    ?getStringValue@OrderedProductInfo@sanct@@ABEPBVString@2@ABV32@@Z @597 ; ?getStringValue@OrderedProductInfo@sanct@@ABEPBVString@2@ABV32@@Z
    ?getTempProductInfoSet@SlipManager@sanct@@QBEXAAVVector@2@@Z @598 ; ?getTempProductInfoSet@SlipManager@sanct@@QBEXAAVVector@2@@Z
    ?getTempProductInfoSet@SlipManager@sanct@@QBEXAAVVector@2@HH@Z @599 ; ?getTempProductInfoSet@SlipManager@sanct@@QBEXAAVVector@2@HH@Z
    ?getTermTypeId@OrderedProductInfo@sanct@@QBEHXZ @600 ; ?getTermTypeId@OrderedProductInfo@sanct@@QBEHXZ
    ?getTermTypeLabel@OrderedProductInfo@sanct@@QBEPBVString@2@XZ @601 ; ?getTermTypeLabel@OrderedProductInfo@sanct@@QBEPBVString@2@XZ
    ?getTimer@OrderedProductInfo@sanct@@QBEPAVProductTimer@2@XZ @602 ; ?getTimer@OrderedProductInfo@sanct@@QBEPAVProductTimer@2@XZ
    ?getTitle@OrderedProductInfo@sanct@@QBEPBVString@2@XZ @603 ; ?getTitle@OrderedProductInfo@sanct@@QBEPBVString@2@XZ
    ?getUnfilteredProductInfoSet@SlipManager@sanct@@IBEXPAVVector@2@H@Z @604 ; ?getUnfilteredProductInfoSet@SlipManager@sanct@@IBEXPAVVector@2@H@Z
    ?getUnregisteredSerialSet@SlipManager@sanct@@QBEXAAVVector@2@@Z @605 ; ?getUnregisteredSerialSet@SlipManager@sanct@@QBEXAAVVector@2@@Z
    ?getUpdatableProductInfoSet@SlipManager@sanct@@QBEXPAVVector@2@HPAVIUpdatePrefs@2@@Z @606 ; ?getUpdatableProductInfoSet@SlipManager@sanct@@QBEXPAVVector@2@HPAVIUpdatePrefs@2@@Z
    ?getUpdateNaggingInterval@OrderedProductInfo@sanct@@QBENPAVIUpdatePrefs@2@@Z @607 ; ?getUpdateNaggingInterval@OrderedProductInfo@sanct@@QBENPAVIUpdatePrefs@2@@Z
    ?getUserInfo@SlipManager@sanct@@UBEPBVUserInfo@2@XZ @608 ; ?getUserInfo@SlipManager@sanct@@UBEPBVUserInfo@2@XZ
    ?getUserLock@SlipManager@sanct@@ABEXAAVString@2@@Z @609 ; ?getUserLock@SlipManager@sanct@@ABEXAAVString@2@@Z
    ?getVendorId@OrderedProductInfo@sanct@@QBEJXZ @610 ; ?getVendorId@OrderedProductInfo@sanct@@QBEJXZ
    ?getVersion@OrderedProductInfo@sanct@@QBEPBVString@2@XZ @611 ; ?getVersion@OrderedProductInfo@sanct@@QBEPBVString@2@XZ
    ?getWarnings@SlipManager@sanct@@QAEXPAVVector@2@@Z @612 ; ?getWarnings@SlipManager@sanct@@QAEXPAVVector@2@@Z
    ?handleEvent@ElHandler@sanct@@UAEHHAAVSanctLicense@2@ABVSanctHeartbeat@2@@Z @613 ; ?handleEvent@ElHandler@sanct@@UAEHHAAVSanctLicense@2@ABVSanctHeartbeat@2@@Z
    ?hasCaller@SlipManager@sanct@@QBE_NH@Z @614 ; ?hasCaller@SlipManager@sanct@@QBE_NH@Z
    ?hashCode@String@sanct@@QAEHXZ @615 ; ?hashCode@String@sanct@@QAEHXZ
    ?importAddOn@SlipManager@sanct@@QAE_NVFile@2@@Z @616 ; ?importAddOn@SlipManager@sanct@@QAE_NVFile@2@@Z
    ?importAddOn@SlipManager@sanct@@QAE_NVFile@2@H@Z @617 ; ?importAddOn@SlipManager@sanct@@QAE_NVFile@2@H@Z
    ?importAllAddOns@SlipManager@sanct@@QAEXXZ @618 ; ?importAllAddOns@SlipManager@sanct@@QAEXXZ
    ?importAutoImportableSlips@SlipManager@sanct@@AAEXXZ @619 ; ?importAutoImportableSlips@SlipManager@sanct@@AAEXXZ
    ?importAutoImportableSlips@SlipManager@sanct@@QAEXPB_W_N@Z @620 ; ?importAutoImportableSlips@SlipManager@sanct@@QAEXPB_W_N@Z
    ?importSlip@SlipManager@sanct@@AAEXABVFile@2@AAV?$basic_ifstream@DU?$char_traits@D@std@@@std@@ABVString@2@_N@Z @621 ; ?importSlip@SlipManager@sanct@@AAEXABVFile@2@AAV?$basic_ifstream@DU?$char_traits@D@std@@@std@@ABVString@2@_N@Z
    ?importSlip@SlipManager@sanct@@QAEXPB_W_N1@Z @622 ; ?importSlip@SlipManager@sanct@@QAEXPB_W_N1@Z
    ?importSlip@SlipManager@sanct@@QAE_NPAVSignedSlip@2@_N@Z @623 ; ?importSlip@SlipManager@sanct@@QAE_NPAVSignedSlip@2@_N@Z
    ?importSlip@SlipManager@sanct@@UAEXPB_W_N@Z @624 ; ?importSlip@SlipManager@sanct@@UAEXPB_W_N@Z
    ?importSlipString@SlipManager@sanct@@QAEXPBVString@2@_N@Z @625 ; ?importSlipString@SlipManager@sanct@@QAEXPBVString@2@_N@Z
    ?indexOf@SVector@sanct@@QBEHPBVString@2@@Z @626 ; ?indexOf@SVector@sanct@@QBEHPBVString@2@@Z
    ?indexOf@Vector@sanct@@QBEHPBX@Z @627 ; ?indexOf@Vector@sanct@@QBEHPBX@Z
    ?info@SanctLogger@sanct@@QAEXPB_W_N@Z @628 ; ?info@SanctLogger@sanct@@QAEXPB_W_N@Z
    ?infoFileExists@SlipManager@sanct@@AAE_NXZ @629 ; ?infoFileExists@SlipManager@sanct@@AAE_NXZ
    ?init@SlipManager@sanct@@AAEXPB_W000HABVString@2@@Z @630 ; ?init@SlipManager@sanct@@AAEXPB_W000HABVString@2@@Z
    ?init@SlipManager@sanct@@AAEXPB_W000HH@Z @631 ; ?init@SlipManager@sanct@@AAEXPB_W000HH@Z
    ?init@SortedSMap@sanct@@AAEXXZ @632 ; ?init@SortedSMap@sanct@@AAEXXZ
    ?init@String@sanct@@AAEXH@Z    @633 ; ?init@String@sanct@@AAEXH@Z
    ?init@StringConv@sanct@@AAEXPBDHW4Encoding@12@@Z @634 ; ?init@StringConv@sanct@@AAEXPBDHW4Encoding@12@@Z
    ?init@StringConv@sanct@@AAEXPB_WHW4Encoding@12@@Z @635 ; ?init@StringConv@sanct@@AAEXPB_WHW4Encoding@12@@Z
    ?init@Vector@sanct@@IAEXH@Z    @636 ; ?init@Vector@sanct@@IAEXH@Z
    ?initCriticalSection@Csanctutil@sanct@@AAEXXZ @637 ; ?initCriticalSection@Csanctutil@sanct@@AAEXXZ
    ?initReg@Csanctutil@sanct@@AAEXXZ @638 ; ?initReg@Csanctutil@sanct@@AAEXXZ
    ?insert@SortedSMap@sanct@@AAEXHABVString@2@0@Z @639 ; ?insert@SortedSMap@sanct@@AAEXHABVString@2@0@Z
    ?instantOn@SlipManager@sanct@@2_NA @640 ; ?instantOn@SlipManager@sanct@@2_NA
    ?isActive@SlipManager@sanct@@QBE_NPAVOrderedProductInfo@2@@Z @641 ; ?isActive@SlipManager@sanct@@QBE_NPAVOrderedProductInfo@2@@Z
    ?isAddOnInfo@OrderedProductInfo@sanct@@QBE_NXZ @642 ; ?isAddOnInfo@OrderedProductInfo@sanct@@QBE_NXZ
    ?isAddOnSlip@SlipManager@sanct@@QBE_NPB_W@Z @643 ; ?isAddOnSlip@SlipManager@sanct@@QBE_NPB_W@Z
    ?isAppWaveTrial@OrderedProductInfo@sanct@@QBE_NXZ @644 ; ?isAppWaveTrial@OrderedProductInfo@sanct@@QBE_NXZ
    ?isApplicable@OrderedProductInfo@sanct@@QBE_NXZ @645 ; ?isApplicable@OrderedProductInfo@sanct@@QBE_NXZ
    ?isBeliseInfo@OrderedProductInfo@sanct@@QBE_NXZ @646 ; ?isBeliseInfo@OrderedProductInfo@sanct@@QBE_NXZ
    ?isBeta@OrderedProductInfo@sanct@@QBE_NXZ @647 ; ?isBeta@OrderedProductInfo@sanct@@QBE_NXZ
    ?isClockReverted@OrderedProductInfo@sanct@@QBE_NXZ @648 ; ?isClockReverted@OrderedProductInfo@sanct@@QBE_NXZ
    ?isESlip@OrderedProductInfo@sanct@@QBE_NXZ @649 ; ?isESlip@OrderedProductInfo@sanct@@QBE_NXZ
    ?isEnabled@OrderedProductInfo@sanct@@QBE_NXZ @650 ; ?isEnabled@OrderedProductInfo@sanct@@QBE_NXZ
    ?isEnterpriseInfo@OrderedProductInfo@sanct@@QBE_NXZ @651 ; ?isEnterpriseInfo@OrderedProductInfo@sanct@@QBE_NXZ
    ?isEnterpriseInfoExactDate@OrderedProductInfo@sanct@@QBE_NXZ @652 ; ?isEnterpriseInfoExactDate@OrderedProductInfo@sanct@@QBE_NXZ
    ?isExactDate@OrderedProductInfo@sanct@@QBE_NXZ @653 ; ?isExactDate@OrderedProductInfo@sanct@@QBE_NXZ
    ?isExpired@OrderedProductInfo@sanct@@QBE_NXZ @654 ; ?isExpired@OrderedProductInfo@sanct@@QBE_NXZ
    ?isExportable@OrderedProductInfo@sanct@@QBE_NXZ @655 ; ?isExportable@OrderedProductInfo@sanct@@QBE_NXZ
    ?isExtendedGracePeriodCheckAllowed@SlipManager@sanct@@ABE_NPBVOrderedProductInfo@2@@Z @656 ; ?isExtendedGracePeriodCheckAllowed@SlipManager@sanct@@ABE_NPBVOrderedProductInfo@2@@Z
    ?isFlexlmInfo@OrderedProductInfo@sanct@@QBE_NXZ @657 ; ?isFlexlmInfo@OrderedProductInfo@sanct@@QBE_NXZ
    ?isFree@OrderedProductInfo@sanct@@QBE_NXZ @658 ; ?isFree@OrderedProductInfo@sanct@@QBE_NXZ
    ?isHost@SlipManager@sanct@@ABE_NPBVOrderedProductInfo@2@HH@Z @659 ; ?isHost@SlipManager@sanct@@ABE_NPBVOrderedProductInfo@2@HH@Z
    ?isHostProduct@OrderedProductInfo@sanct@@QBE_NXZ @660 ; ?isHostProduct@OrderedProductInfo@sanct@@QBE_NXZ
    ?isInstantOn@SlipManager@sanct@@QBE_NXZ @661 ; ?isInstantOn@SlipManager@sanct@@QBE_NXZ
    ?isInternalOnly@OrderedProductInfo@sanct@@QBE_NXZ @662 ; ?isInternalOnly@OrderedProductInfo@sanct@@QBE_NXZ
    ?isLocked@OrderedProductInfo@sanct@@QBE_NXZ @663 ; ?isLocked@OrderedProductInfo@sanct@@QBE_NXZ
    ?isLoggerAvailable@SanctLogger@sanct@@QAE_NXZ @664 ; ?isLoggerAvailable@SanctLogger@sanct@@QAE_NXZ
    ?isMyToolsForProduct@OrderedProductInfo@sanct@@QBE_NXZ @665 ; ?isMyToolsForProduct@OrderedProductInfo@sanct@@QBE_NXZ
    ?isMyToolsLicense@OrderedProductInfo@sanct@@QBE_NXZ @666 ; ?isMyToolsLicense@OrderedProductInfo@sanct@@QBE_NXZ
    ?isMytoolsStubLicense@OrderedProductInfo@sanct@@QBE_NXZ @667 ; ?isMytoolsStubLicense@OrderedProductInfo@sanct@@QBE_NXZ
    ?isNaggy@OrderedProductInfo@sanct@@QBE_NXZ @668 ; ?isNaggy@OrderedProductInfo@sanct@@QBE_NXZ
    ?isNonCommercial@OrderedProductInfo@sanct@@QBE_NXZ @669 ; ?isNonCommercial@OrderedProductInfo@sanct@@QBE_NXZ
    ?isPermanent@OrderedProductInfo@sanct@@QBE_NXZ @670 ; ?isPermanent@OrderedProductInfo@sanct@@QBE_NXZ
    ?isRegistered@SlipManager@sanct@@QBE_NPBVSerial@2@@Z @671 ; ?isRegistered@SlipManager@sanct@@QBE_NPBVSerial@2@@Z
    ?isRenewable@LicenseRenewalPrefs@sanct@@MAE_NPBVOrderedProductInfo@2@@Z @672 ; ?isRenewable@LicenseRenewalPrefs@sanct@@MAE_NPBVOrderedProductInfo@2@@Z
    ?isSerialInProduct@SlipManager@sanct@@ABE_NPBVSerial@2@PBVOrderedProductInfo@2@@Z @673 ; ?isSerialInProduct@SlipManager@sanct@@ABE_NPBVSerial@2@PBVOrderedProductInfo@2@@Z
    ?isTemporary@OrderedProductInfo@sanct@@QBE_NXZ @674 ; ?isTemporary@OrderedProductInfo@sanct@@QBE_NXZ
    ?isTerm@OrderedProductInfo@sanct@@QBE_NXZ @675 ; ?isTerm@OrderedProductInfo@sanct@@QBE_NXZ
    ?isTransient@OrderedProductInfo@sanct@@QBE_NXZ @676 ; ?isTransient@OrderedProductInfo@sanct@@QBE_NXZ
    ?isTrial@OrderedProductInfo@sanct@@QBE_NXZ @677 ; ?isTrial@OrderedProductInfo@sanct@@QBE_NXZ
    ?isTrialRegistered@SlipManager@sanct@@QBE_NPBVSerial@2@@Z @678 ; ?isTrialRegistered@SlipManager@sanct@@QBE_NPBVSerial@2@@Z
    ?isUpdatable@OrderedProductInfo@sanct@@QBE_NXZ @679 ; ?isUpdatable@OrderedProductInfo@sanct@@QBE_NXZ
    ?isUpdatable@OrderedProductInfo@sanct@@QBE_N_NPAVIUpdatePrefs@2@@Z @680 ; ?isUpdatable@OrderedProductInfo@sanct@@QBE_N_NPAVIUpdatePrefs@2@@Z
    ?isUpgrade@OrderedProductInfo@sanct@@QBE_NXZ @681 ; ?isUpgrade@OrderedProductInfo@sanct@@QBE_NXZ
    ?isV3Capable@OrderedProductInfo@sanct@@QBE_NXZ @682 ; ?isV3Capable@OrderedProductInfo@sanct@@QBE_NXZ
    ?isVendorLicense@OrderedProductInfo@sanct@@QBE_NXZ @683 ; ?isVendorLicense@OrderedProductInfo@sanct@@QBE_NXZ
    ?isWithinInterval@OrderedProductInfo@sanct@@ABE_NNNN@Z @684 ; ?isWithinInterval@OrderedProductInfo@sanct@@ABE_NNNN@Z
    ?keepLicense@CheckinPolicyUtil@sanct@@SAXXZ @685 ; ?keepLicense@CheckinPolicyUtil@sanct@@SAXXZ
    ?lastIndexOf@String@sanct@@QBEH_W@Z @686 ; ?lastIndexOf@String@sanct@@QBEH_W@Z
    ?length@String@sanct@@QBEHXZ   @687 ; ?length@String@sanct@@QBEHXZ
    ?linkTimers@SlipManager@sanct@@ABEXPAVOrderedProductInfo@2@@Z @688 ; ?linkTimers@SlipManager@sanct@@ABEXPAVOrderedProductInfo@2@@Z
    ?load@SlipManager@sanct@@QAE_NXZ @689 ; ?load@SlipManager@sanct@@QAE_NXZ
    ?loadAddOnSlips@SlipManager@sanct@@AAEXAAVVector@2@VFile@2@@Z @690 ; ?loadAddOnSlips@SlipManager@sanct@@AAEXAAVVector@2@VFile@2@@Z
    ?loadBorrower@SlipManager@sanct@@QBEXAAVOrderedProductInfo@2@@Z @691 ; ?loadBorrower@SlipManager@sanct@@QBEXAAVOrderedProductInfo@2@@Z
    ?loadDataFromReg@Csanctutil@sanct@@QAE_NPBD0PAPADPAK@Z @692 ; ?loadDataFromReg@Csanctutil@sanct@@QAE_NPBD0PAPADPAK@Z
    ?loadInternal@SlipManager@sanct@@IAEXXZ @693 ; ?loadInternal@SlipManager@sanct@@IAEXXZ
    ?loadLicenseSelectionConfig@SlipManager@sanct@@QAEXPB_W@Z @694 ; ?loadLicenseSelectionConfig@SlipManager@sanct@@QAEXPB_W@Z
    ?loadMACaddress@Csanctutil@sanct@@AAEXXZ @695 ; ?loadMACaddress@Csanctutil@sanct@@AAEXXZ
    ?loadTimer@OrderedProductInfo@sanct@@QAEXPAVProductTimer@2@@Z @696 ; ?loadTimer@OrderedProductInfo@sanct@@QAEXPAVProductTimer@2@@Z
    ?lock@VISMutex@@QAEXXZ         @697 ; ?lock@VISMutex@@QAEXXZ
    ?lock@VISMutex_var@@QAEXXZ     @698 ; ?lock@VISMutex_var@@QAEXXZ
    ?matches@MytoolsDescriptor@sanct@@QBE_NPBVOrderedProductInfo@2@@Z @699 ; ?matches@MytoolsDescriptor@sanct@@QBE_NPBVOrderedProductInfo@2@@Z
    ?maxLockAttempts@FileHelper@sanct@@0HC @700 ; ?maxLockAttempts@FileHelper@sanct@@0HC
    ?mbstowcs@StringConv@sanct@@CAIPA_WPBDI@Z @701 ; ?mbstowcs@StringConv@sanct@@CAIPA_WPBDI@Z
    ?mtx@File@sanct@@0VVISMutex@@A @702 ; ?mtx@File@sanct@@0VVISMutex@@A
    ?multipleSelectableLicenses@SlipManager@sanct@@QAE_NH@Z @703 ; ?multipleSelectableLicenses@SlipManager@sanct@@QAE_NH@Z
    ?normalizePath@Csanctutil@sanct@@ABE?AV?$basic_string@DU?$char_traits@D@std@@V?$allocator@D@2@@std@@ABV34@@Z @704 ; ?normalizePath@Csanctutil@sanct@@ABE?AV?$basic_string@DU?$char_traits@D@std@@V?$allocator@D@2@@std@@ABV34@@Z
    ?parseInt@sanct@@YAHABVString@1@H@Z @705 ; ?parseInt@sanct@@YAHABVString@1@H@Z
    ?parseInt@sanct@@YAHPBVString@1@H@Z @706 ; ?parseInt@sanct@@YAHPBVString@1@H@Z
    ?parseInt@sanct@@YAHPB_WH@Z    @707 ; ?parseInt@sanct@@YAHPB_WH@Z
    ?parseLock@SlipManager@sanct@@ABEHPBVString@2@HPAV32@@Z @708 ; ?parseLock@SlipManager@sanct@@ABEHPBVString@2@HPAV32@@Z
    ?parseLong@sanct@@YANABVString@1@N@Z @709 ; ?parseLong@sanct@@YANABVString@1@N@Z
    ?parseLong@sanct@@YANPBVString@1@N@Z @710 ; ?parseLong@sanct@@YANPBVString@1@N@Z
    ?parseLong@sanct@@YANPB_WN@Z   @711 ; ?parseLong@sanct@@YANPB_WN@Z
    ?parseUpdateLevels@OrderedProductInfo@sanct@@IBE?AV?$vector@HV?$allocator@H@std@@@std@@PBVString@2@@Z @712 ; ?parseUpdateLevels@OrderedProductInfo@sanct@@IBE?AV?$vector@HV?$allocator@H@std@@@std@@PBVString@2@@Z
    ?platformLabel@Data@sanct@@2QAY0EA@$$CB_WA @713 ; ?platformLabel@Data@sanct@@2QAY0EA@$$CB_WA
    ?put@SortedSMap@sanct@@QAEXABVString@2@0@Z @714 ; ?put@SortedSMap@sanct@@QAEXABVString@2@0@Z
    ?putRegisteredTrialSerial@SlipManager@sanct@@AAEXABVString@2@@Z @715 ; ?putRegisteredTrialSerial@SlipManager@sanct@@AAEXABVString@2@@Z
    ?putSerial@SlipManager@sanct@@QAEPBVSerial@2@ABVString@2@@Z @716 ; ?putSerial@SlipManager@sanct@@QAEPBVSerial@2@ABVString@2@@Z
    ?read@SlipManager@sanct@@AAEXAAV?$basic_ifstream@DU?$char_traits@D@std@@@std@@_N@Z @717 ; ?read@SlipManager@sanct@@AAEXAAV?$basic_ifstream@DU?$char_traits@D@std@@@std@@_N@Z
    ?read@SlipManager@sanct@@UAEXXZ @718 ; ?read@SlipManager@sanct@@UAEXXZ
    ?readAttributes@SlipManager@sanct@@AAEXAAVCharArrayReader@2@PAVInfo@2@@Z @719 ; ?readAttributes@SlipManager@sanct@@AAEXAAVCharArrayReader@2@PAVInfo@2@@Z
    ?readContent@SlipManager@sanct@@AAEXAAVCharArrayReader@2@@Z @720 ; ?readContent@SlipManager@sanct@@AAEXAAVCharArrayReader@2@@Z
    ?readInfoAttributes@SlipManager@sanct@@AAEPAVOrderedProductInfo@2@AAVCharArrayReader@2@@Z @721 ; ?readInfoAttributes@SlipManager@sanct@@AAEPAVOrderedProductInfo@2@AAVCharArrayReader@2@@Z
    ?readInfoFile@SlipManager@sanct@@AAE_NABVFile@2@@Z @722 ; ?readInfoFile@SlipManager@sanct@@AAE_NABVFile@2@@Z
    ?readInfoFile@SlipManager@sanct@@AAE_NABVFile@2@_N@Z @723 ; ?readInfoFile@SlipManager@sanct@@AAE_NABVFile@2@_N@Z
    ?readInfoFile@SlipManager@sanct@@AAE_NXZ @724 ; ?readInfoFile@SlipManager@sanct@@AAE_NXZ
    ?readInfoFile@SlipManager@sanct@@AAE_N_N@Z @725 ; ?readInfoFile@SlipManager@sanct@@AAE_N_N@Z
    ?readTimer@SlipManager@sanct@@ABEPAVProductTimer@2@AAVCharArrayReader@2@@Z @726 ; ?readTimer@SlipManager@sanct@@ABEPAVProductTimer@2@AAVCharArrayReader@2@@Z
    ?recordTimer@SlipManager@sanct@@ABEXAAVCharArrayWriter@2@PAVProductTimer@2@@Z @727 ; ?recordTimer@SlipManager@sanct@@ABEXAAVCharArrayWriter@2@PAVProductTimer@2@@Z
    ?refreshLicenseFilters@SlipManager@sanct@@QAEXXZ @728 ; ?refreshLicenseFilters@SlipManager@sanct@@QAEXXZ
    ?refreshTimers@SlipManager@sanct@@AAEXAAVCharArrayReader@2@@Z @729 ; ?refreshTimers@SlipManager@sanct@@AAEXAAVCharArrayReader@2@@Z
    ?refreshTimers@SlipManager@sanct@@QAEXXZ @730 ; ?refreshTimers@SlipManager@sanct@@QAEXXZ
    ?reloadProductInfoMap@SlipManager@sanct@@AAEXXZ @731 ; ?reloadProductInfoMap@SlipManager@sanct@@AAEXXZ
    ?remove@SortedSMap@sanct@@QAEXABVString@2@@Z @732 ; ?remove@SortedSMap@sanct@@QAEXABVString@2@@Z
    ?remove@Vector@sanct@@QAEPBXH@Z @733 ; ?remove@Vector@sanct@@QAEPBXH@Z
    ?removeAddOn@SlipManager@sanct@@AAE_NPBVOrderedProductInfo@2@@Z @734 ; ?removeAddOn@SlipManager@sanct@@AAE_NPBVOrderedProductInfo@2@@Z
    ?removeAddOnSlip@SlipManager@sanct@@AAEXABVString@2@@Z @735 ; ?removeAddOnSlip@SlipManager@sanct@@AAEXABVString@2@@Z
    ?removeCaller@SlipManager@sanct@@QAEXH@Z @736 ; ?removeCaller@SlipManager@sanct@@QAEXH@Z
    ?removeElement@Vector@sanct@@QAEXPBX@Z @737 ; ?removeElement@Vector@sanct@@QAEXPBX@Z
    ?removeProductInfo@SlipManager@sanct@@QAE_NPBVOrderedProductInfo@2@@Z @738 ; ?removeProductInfo@SlipManager@sanct@@QAE_NPBVOrderedProductInfo@2@@Z
    ?removeSerial@SlipManager@sanct@@AAE_NPBVString@2@_N@Z @739 ; ?removeSerial@SlipManager@sanct@@AAE_NPBVString@2@_N@Z
    ?removeSerial@SlipManager@sanct@@QAE_NPBVString@2@@Z @740 ; ?removeSerial@SlipManager@sanct@@QAE_NPBVString@2@@Z
    ?removeSlip@SlipManager@sanct@@QAEXPB_W@Z @741 ; ?removeSlip@SlipManager@sanct@@QAEXPB_W@Z
    ?renameAddOnSlip@SlipManager@sanct@@ABEXVFile@2@H@Z @742 ; ?renameAddOnSlip@SlipManager@sanct@@ABEXVFile@2@H@Z
    ?replace@String@sanct@@QAEXHHABV12@@Z @743 ; ?replace@String@sanct@@QAEXHHABV12@@Z
    ?replace@String@sanct@@QAEXHHPB_W@Z @744 ; ?replace@String@sanct@@QAEXHHPB_W@Z
    ?replaceProductInfo@SlipManager@sanct@@IAEXPBVOrderedProductInfo@2@PAV32@@Z @745 ; ?replaceProductInfo@SlipManager@sanct@@IAEXPBVOrderedProductInfo@2@PAV32@@Z
    ?replaces@OrderedProductInfo@sanct@@QBE_NPBV12@@Z @746 ; ?replaces@OrderedProductInfo@sanct@@QBE_NPBV12@@Z
    ?resetGraceLaunchAttemptCount@SlipManager@sanct@@QAEXHH@Z @747 ; ?resetGraceLaunchAttemptCount@SlipManager@sanct@@QAEXHH@Z
    ?resetHash@String@sanct@@AAEXXZ @748 ; ?resetHash@String@sanct@@AAEXXZ
    ?resetLastUsed@OrderedProductInfo@sanct@@QAEXXZ @749 ; ?resetLastUsed@OrderedProductInfo@sanct@@QAEXXZ
    ?resetLastUsed@OrderedProductInfo@sanct@@QAEX_N@Z @750 ; ?resetLastUsed@OrderedProductInfo@sanct@@QAEX_N@Z
    ?resize@Vector@sanct@@QAEXH@Z  @751 ; ?resize@Vector@sanct@@QAEXH@Z
    ?restore@SlipManager@sanct@@QAE_NABVFile@2@@Z @752 ; ?restore@SlipManager@sanct@@QAE_NABVFile@2@@Z
    ?restore@SlipManager@sanct@@QAE_NABVFile@2@_N@Z @753 ; ?restore@SlipManager@sanct@@QAE_NABVFile@2@_N@Z
    ?reverse@String@sanct@@QAEXXZ  @754 ; ?reverse@String@sanct@@QAEXXZ
    ?rfind@String@sanct@@QBEHPB_W@Z @755 ; ?rfind@String@sanct@@QBEHPB_W@Z
    ?rfind@String@sanct@@QBEH_W@Z  @756 ; ?rfind@String@sanct@@QBEH_W@Z
    ?save@SlipManager@sanct@@AAEX_N0@Z @757 ; ?save@SlipManager@sanct@@AAEX_N0@Z
    ?save@SlipManager@sanct@@EAEXXZ @758 ; ?save@SlipManager@sanct@@EAEXXZ
    ?saveDataToReg@Csanctutil@sanct@@QAE_NPBD00K@Z @759 ; ?saveDataToReg@Csanctutil@sanct@@QAE_NPBD00K@Z
    ?saveGraceLaunchAttemptCount@SlipManager@sanct@@AAEHHHH@Z @760 ; ?saveGraceLaunchAttemptCount@SlipManager@sanct@@AAEHHHH@Z
    ?sbstowcs@StringConv@sanct@@CAIPA_WPBDI@Z @761 ; ?sbstowcs@StringConv@sanct@@CAIPA_WPBDI@Z
    ?separator@File@sanct@@2VString@2@B @762 ; ?separator@File@sanct@@2VString@2@B
    ?separatorChar@File@sanct@@2_WB @763 ; ?separatorChar@File@sanct@@2_WB
    ?serialDescendantOf@OrderedProductInfo@sanct@@QBE_NPBV12@@Z @764 ; ?serialDescendantOf@OrderedProductInfo@sanct@@QBE_NPBV12@@Z
    ?setBackupFile@SlipManager@sanct@@QAEXABVFile@2@@Z @765 ; ?setBackupFile@SlipManager@sanct@@QAEXABVFile@2@@Z
    ?setBorrower@OrderedProductInfo@sanct@@QAEXPAVBorrower@2@@Z @766 ; ?setBorrower@OrderedProductInfo@sanct@@QAEXPAVBorrower@2@@Z
    ?setCustomAttribute@OrderedProductInfo@sanct@@QAEXABVString@2@0@Z @767 ; ?setCustomAttribute@OrderedProductInfo@sanct@@QAEXABVString@2@0@Z
    ?setDefaultDir@SlipManager@sanct@@QAEXABVString@2@@Z @768 ; ?setDefaultDir@SlipManager@sanct@@QAEXABVString@2@@Z
    ?setEnabled@OrderedProductInfo@sanct@@QAEX_N@Z @769 ; ?setEnabled@OrderedProductInfo@sanct@@QAEX_N@Z
    ?setExtendedCallerIdSet@SlipManager@sanct@@QAEXABV?$set@HU?$less@H@std@@V?$allocator@H@2@@std@@@Z @770 ; ?setExtendedCallerIdSet@SlipManager@sanct@@QAEXABV?$set@HU?$less@H@std@@V?$allocator@H@2@@std@@@Z
    ?setFirstUsed@OrderedProductInfo@sanct@@AAEXN@Z @771 ; ?setFirstUsed@OrderedProductInfo@sanct@@AAEXN@Z
    ?setInfoDir@LicenseFileHelper@sanct@@AAEXPBVFile@2@0_N@Z @772 ; ?setInfoDir@LicenseFileHelper@sanct@@AAEXPBVFile@2@0_N@Z
    ?setLastUsed@OrderedProductInfo@sanct@@AAEXN@Z @773 ; ?setLastUsed@OrderedProductInfo@sanct@@AAEXN@Z
    ?setLength@String@sanct@@QAEXH@Z @774 ; ?setLength@String@sanct@@QAEXH@Z
    ?setLserverStatus@OrderedProductInfo@sanct@@QAEXH@Z @775 ; ?setLserverStatus@OrderedProductInfo@sanct@@QAEXH@Z
    ?setMachineInfo@SlipManager@sanct@@QAEXABVMachineInfo@2@@Z @776 ; ?setMachineInfo@SlipManager@sanct@@QAEXABVMachineInfo@2@@Z
    ?setMytoolsAttributes@OrderedProductInfo@sanct@@QAE_NABVMytoolsDescriptor@2@@Z @777 ; ?setMytoolsAttributes@OrderedProductInfo@sanct@@QAE_NABVMytoolsDescriptor@2@@Z
    ?setNodeLock@SlipManager@sanct@@AAEXXZ @778 ; ?setNodeLock@SlipManager@sanct@@AAEXXZ
    ?setOwnerPackage@OrderedProductInfo@sanct@@QAEXPBVSignedSlip@2@@Z @779 ; ?setOwnerPackage@OrderedProductInfo@sanct@@QAEXPBVSignedSlip@2@@Z
    ?setRegBinaryValue@Csanctutil@sanct@@AAE_NPB_WPBDK@Z @780 ; ?setRegBinaryValue@Csanctutil@sanct@@AAE_NPB_WPBDK@Z
    ?setRootDir@SlipManager@sanct@@QAEXABVString@2@@Z @781 ; ?setRootDir@SlipManager@sanct@@QAEXABVString@2@@Z
    ?setSaveFlag@SlipManager@sanct@@AAE_NPAVOrderedProductInfo@2@@Z @782 ; ?setSaveFlag@SlipManager@sanct@@AAE_NPAVOrderedProductInfo@2@@Z
    ?setSessionId@SlipManager@sanct@@AAEXXZ @783 ; ?setSessionId@SlipManager@sanct@@AAEXXZ
    ?setSlipImportDir@SlipManager@sanct@@QAEXABVString@2@@Z @784 ; ?setSlipImportDir@SlipManager@sanct@@QAEXABVString@2@@Z
    ?setTransient@OrderedProductInfo@sanct@@QAEX_N@Z @785 ; ?setTransient@OrderedProductInfo@sanct@@QAEX_N@Z
    ?setUserLock@SlipManager@sanct@@AAEXXZ @786 ; ?setUserLock@SlipManager@sanct@@AAEXXZ
    ?shouldLaunchLicenseSelection@SlipManager@sanct@@QAE_NXZ @787 ; ?shouldLaunchLicenseSelection@SlipManager@sanct@@QAE_NXZ
    ?size@Directory@sanct@@QBEHXZ  @788 ; ?size@Directory@sanct@@QBEHXZ
    ?size@SortedSMap@sanct@@QBEHXZ @789 ; ?size@SortedSMap@sanct@@QBEHXZ
    ?size@Vector@sanct@@QBEHXZ     @790 ; ?size@Vector@sanct@@QBEHXZ
    ?split@String@sanct@@QBEPAPAV12@_WPAH@Z @791 ; ?split@String@sanct@@QBEPAPAV12@_WPAH@Z
    ?start@SanctLogger@sanct@@QAEXXZ @792 ; ?start@SanctLogger@sanct@@QAEXXZ
    ?startLogDump@SlipManager@sanct@@ABEXAAVSanctLogger@2@@Z @793 ; ?startLogDump@SlipManager@sanct@@ABEXAAVSanctLogger@2@@Z
    ?startRenewalThread@SlipManager@sanct@@AAEXPAVILicenseRenewalCallback@2@PAVILicenseRenewalPrefs@2@@Z @794 ; ?startRenewalThread@SlipManager@sanct@@AAEXPAVILicenseRenewalCallback@2@PAVILicenseRenewalPrefs@2@@Z
    ?startUsageThread@SlipManager@sanct@@AAEXXZ @795 ; ?startUsageThread@SlipManager@sanct@@AAEXXZ
    ?startsWith@String@sanct@@QBE_NPB_W@Z @796 ; ?startsWith@String@sanct@@QBE_NPB_W@Z
    ?stopRenewalThread@SlipManager@sanct@@AAEXXZ @797 ; ?stopRenewalThread@SlipManager@sanct@@AAEXXZ
    ?stopUpdateThread@SlipManager@sanct@@AAEXXZ @798 ; ?stopUpdateThread@SlipManager@sanct@@AAEXXZ
    ?stopUsageThread@SlipManager@sanct@@AAEXXZ @799 ; ?stopUsageThread@SlipManager@sanct@@AAEXXZ
    ?store@ElHandler@sanct@@AAEXAAVOrderedProductInfo@2@AAVSanctLicense@2@@Z @800 ; ?store@ElHandler@sanct@@AAEXAAVOrderedProductInfo@2@AAVSanctLicense@2@@Z
    ?storeBorrower@SlipManager@sanct@@QAEXABVOrderedProductInfo@2@@Z @801 ; ?storeBorrower@SlipManager@sanct@@QAEXABVOrderedProductInfo@2@@Z
    ?substring@String@sanct@@QBEXHAAV12@@Z @802 ; ?substring@String@sanct@@QBEXHAAV12@@Z
    ?substring@String@sanct@@QBEXHHAAV12@@Z @803 ; ?substring@String@sanct@@QBEXHHAAV12@@Z
    ?termTypeLabel@Data@sanct@@2QAY0EA@$$CB_WA @804 ; ?termTypeLabel@Data@sanct@@2QAY0EA@$$CB_WA
    ?textFormat@String@sanct@@QAEXABV12@0@Z @805 ; ?textFormat@String@sanct@@QAEXABV12@0@Z
    ?throwCorruptionError@SlipManager@sanct@@AAEXXZ @806 ; ?throwCorruptionError@SlipManager@sanct@@AAEXXZ
    ?throwLockingError@SlipManager@sanct@@AAEX_N@Z @807 ; ?throwLockingError@SlipManager@sanct@@AAEX_N@Z
    ?titleCommunityNews@Data@sanct@@2PB_WB @808 ; ?titleCommunityNews@Data@sanct@@2PB_WB
    ?titleEmail@Data@sanct@@2PB_WB @809 ; ?titleEmail@Data@sanct@@2PB_WB
    ?titleFax@Data@sanct@@2PB_WB   @810 ; ?titleFax@Data@sanct@@2PB_WB
    ?titlePhone@Data@sanct@@2PB_WB @811 ; ?titlePhone@Data@sanct@@2PB_WB
    ?titlePostal@Data@sanct@@2PB_WB @812 ; ?titlePostal@Data@sanct@@2PB_WB
    ?toBytes@StringConv@sanct@@SAPBDPB_WPAHW4Encoding@12@@Z @813 ; ?toBytes@StringConv@sanct@@SAPBDPB_WPAHW4Encoding@12@@Z
    ?toChars@StringConv@sanct@@SAPB_WPBDPAHW4Encoding@12@@Z @814 ; ?toChars@StringConv@sanct@@SAPB_WPBDPAHW4Encoding@12@@Z
    ?toLower@String@sanct@@QBEXAAV12@@Z @815 ; ?toLower@String@sanct@@QBEXAAV12@@Z
    ?toUpper@String@sanct@@QBEXAAV12@@Z @816 ; ?toUpper@String@sanct@@QBEXAAV12@@Z
    ?touch@ElHandler@sanct@@AAEXAAVOrderedProductInfo@2@AAVSanctLicense@2@_N@Z @817 ; ?touch@ElHandler@sanct@@AAEXAAVOrderedProductInfo@2@AAVSanctLicense@2@_N@Z
    ?touchBackupFile@LicenseFileHelper@sanct@@QAEXAAVTempFile@2@@Z @818 ; ?touchBackupFile@LicenseFileHelper@sanct@@QAEXAAVTempFile@2@@Z
    ?touchBorrower@SlipManager@sanct@@QAEXABVOrderedProductInfo@2@_N@Z @819 ; ?touchBorrower@SlipManager@sanct@@QAEXABVOrderedProductInfo@2@_N@Z
    ?trim@String@sanct@@QAEAAV12@XZ @820 ; ?trim@String@sanct@@QAEAAV12@XZ
    ?ucs2toutf8@StringConv@sanct@@CAIPADPB_WI@Z @821 ; ?ucs2toutf8@StringConv@sanct@@CAIPADPB_WI@Z
    ?unlinkTimer@SlipManager@sanct@@ABEXPAVOrderedProductInfo@2@@Z @822 ; ?unlinkTimer@SlipManager@sanct@@ABEXPAVOrderedProductInfo@2@@Z
    ?unlinkTimers@SlipManager@sanct@@ABEXPAVSignedSlip@2@@Z @823 ; ?unlinkTimers@SlipManager@sanct@@ABEXPAVSignedSlip@2@@Z
    ?unlock@VISMutex@@QAEXXZ       @824 ; ?unlock@VISMutex@@QAEXXZ
    ?unlock@VISMutex_var@@QAEXXZ   @825 ; ?unlock@VISMutex_var@@QAEXXZ
    ?updateActiveSlipSet@SlipManager@sanct@@AAEXXZ @826 ; ?updateActiveSlipSet@SlipManager@sanct@@AAEXXZ
    ?updateGraceLaunchAttemptCount@SlipManager@sanct@@QAEHHH@Z @827 ; ?updateGraceLaunchAttemptCount@SlipManager@sanct@@QAEHHH@Z
    ?utf8toucs2@StringConv@sanct@@CAIPA_WPBDI@Z @828 ; ?utf8toucs2@StringConv@sanct@@CAIPA_WPBDI@Z
    ?verifyOemSlip@SlipManager@sanct@@AAEXABVString@2@00@Z @829 ; ?verifyOemSlip@SlipManager@sanct@@AAEXABVString@2@00@Z
    ?verifySlip@SlipManager@sanct@@QAEXPAVSignedSlip@2@@Z @830 ; ?verifySlip@SlipManager@sanct@@QAEXPAVSignedSlip@2@@Z
    ?warningsExist@SlipManager@sanct@@QAE_NXZ @831 ; ?warningsExist@SlipManager@sanct@@QAE_NXZ
    ?wcstombs@StringConv@sanct@@CAIPADPB_WI@Z @832 ; ?wcstombs@StringConv@sanct@@CAIPADPB_WI@Z
    ?wcstosbs@StringConv@sanct@@CAIPADPB_WI@Z @833 ; ?wcstosbs@StringConv@sanct@@CAIPADPB_WI@Z
    ?what@IOException@sanct@@QBEPB_WXZ @834 ; ?what@IOException@sanct@@QBEPB_WXZ
    ?what@RuntimeException@sanct@@QBEPB_WXZ @835 ; ?what@RuntimeException@sanct@@QBEPB_WXZ
    ?write@SlipManager@sanct@@AAEXAAV?$basic_ofstream@DU?$char_traits@D@std@@@std@@@Z @836 ; ?write@SlipManager@sanct@@AAEXAAV?$basic_ofstream@DU?$char_traits@D@std@@@std@@@Z
    ?write@SlipManager@sanct@@AAEXAAVByteArrayOutputStream@2@@Z @837 ; ?write@SlipManager@sanct@@AAEXAAVByteArrayOutputStream@2@@Z
    ?write@SlipManager@sanct@@AAEXAAVDataOutputStream@2@@Z @838 ; ?write@SlipManager@sanct@@AAEXAAVDataOutputStream@2@@Z
    ?write@StringConv@sanct@@QAEXAAVByteArrayOutputStream@2@W4Encoding@12@@Z @839 ; ?write@StringConv@sanct@@QAEXAAVByteArrayOutputStream@2@W4Encoding@12@@Z
    ?write@StringConv@sanct@@QAEXPAVByteArrayOutputStream@2@W4Encoding@12@@Z @840 ; ?write@StringConv@sanct@@QAEXPAVByteArrayOutputStream@2@W4Encoding@12@@Z
    ?writeContent@SlipManager@sanct@@AAEXAAVCharArrayWriter@2@@Z @841 ; ?writeContent@SlipManager@sanct@@AAEXAAVCharArrayWriter@2@@Z
    ?writeSlipStringToFile@SlipManager@sanct@@AAEXPB_W0@Z @842 ; ?writeSlipStringToFile@SlipManager@sanct@@AAEXPB_W0@Z
    ?writeSlipToFile@SlipManager@sanct@@QAEXPB_W0@Z @843 ; ?writeSlipToFile@SlipManager@sanct@@QAEXPB_W0@Z
    FL_BeginGroup                  @844 ; FL_BeginGroup
    FL_Checkin                     @845 ; FL_Checkin
    FL_CheckoutA                   @846 ; FL_CheckoutA
    FL_CheckoutW                   @847 ; FL_CheckoutW
    FL_Disconnect                  @848 ; FL_Disconnect
    FL_DoNextGroupItemA            @849 ; FL_DoNextGroupItemA
    FL_DoNextGroupItemW            @850 ; FL_DoNextGroupItemW
    FL_EndGroup                    @851 ; FL_EndGroup
    FL_GetError                    @852 ; FL_GetError
    FL_Heartbeat                   @853 ; FL_Heartbeat
    FL_InitA                       @854 ; FL_InitA
    FL_InitW                       @855 ; FL_InitW
    FL_Release                     @856 ; FL_Release
    FL_Setup                       @857 ; FL_Setup
    FreeString                     @858 ; FreeString
    FreeStringInArray              @859 ; FreeStringInArray
    GetAppDataInfoDirA             @860 ; GetAppDataInfoDirA
    GetAppDataInfoDirW             @861 ; GetAppDataInfoDirW
    GetAppDataSlipStorageDirA      @862 ; GetAppDataSlipStorageDirA
    GetAppDataSlipStorageDirW      @863 ; GetAppDataSlipStorageDirW
    GetDebugErrorCode              @864 ; GetDebugErrorCode
    GetDebugErrorMsgA              @865 ; GetDebugErrorMsgA
    GetDebugErrorMsgW              @866 ; GetDebugErrorMsgW
    LSEL_LockFileA                 @867 ; LSEL_LockFileA
    LSEL_LockFileW                 @868 ; LSEL_LockFileW
    LSEL_UnlockFileAndFreeLock     @869 ; LSEL_UnlockFileAndFreeLock
    NL_Borrow                      @870 ; NL_Borrow
    NL_BorrowMultipleDifferentDurations @871 ; NL_BorrowMultipleDifferentDurations
    NL_BorrowMultipleSameDuration  @872 ; NL_BorrowMultipleSameDuration
    NL_Checkin                     @873 ; NL_Checkin
    NL_CheckinMultiple             @874 ; NL_CheckinMultiple
    NL_Checkout                    @875 ; NL_Checkout
    NL_CheckoutMultiple            @876 ; NL_CheckoutMultiple
    NL_CreateLicense               @877 ; NL_CreateLicense
    NL_GetBorrowingLeft            @878 ; NL_GetBorrowingLeft
    NL_GetBorrowingLeftMultiple    @879 ; NL_GetBorrowingLeftMultiple
    NL_GetError                    @880 ; NL_GetError
    NL_GetGracePeriodLeft          @881 ; NL_GetGracePeriodLeft
    NL_ReleaseLicense              @882 ; NL_ReleaseLicense
    NL_SetCoHostNameA              @883 ; NL_SetCoHostNameA
    NL_SetCoHostNameW              @884 ; NL_SetCoHostNameW
    NL_SetCoUserNameA              @885 ; NL_SetCoUserNameA
    NL_SetCoUserNameW              @886 ; NL_SetCoUserNameW
    NL_Status                      @887 ; NL_Status
    PI_GetBorrowDuration           @888 ; PI_GetBorrowDuration
    PI_GetCustomAttributeValueA    @889 ; PI_GetCustomAttributeValueA
    PI_GetCustomAttributeValueW    @890 ; PI_GetCustomAttributeValueW
    PI_GetCustomAttributesA        @891 ; PI_GetCustomAttributesA
    PI_GetCustomAttributesW        @892 ; PI_GetCustomAttributesW
    PI_GetCustomSize               @893 ; PI_GetCustomSize
    PI_GetDaysLeft                 @894 ; PI_GetDaysLeft
    PI_GetESlipSubscriptionExpirationDate @895 ; PI_GetESlipSubscriptionExpirationDate
    PI_GetLicenseType              @896 ; PI_GetLicenseType
    PI_GetPlatformNameA            @897 ; PI_GetPlatformNameA
    PI_GetPlatformNameW            @898 ; PI_GetPlatformNameW
    PI_GetProductIdLabelA          @899 ; PI_GetProductIdLabelA
    PI_GetProductIdLabelW          @900 ; PI_GetProductIdLabelW
    PI_GetSerialNoA                @901 ; PI_GetSerialNoA
    PI_GetSerialNoW                @902 ; PI_GetSerialNoW
    PI_GetSkuLabelA                @903 ; PI_GetSkuLabelA
    PI_GetSkuLabelW                @904 ; PI_GetSkuLabelW
    PI_GetStandardAttributeValueA  @905 ; PI_GetStandardAttributeValueA
    PI_GetStandardAttributeValueW  @906 ; PI_GetStandardAttributeValueW
    PI_GetStandardAttributesA      @907 ; PI_GetStandardAttributesA
    PI_GetStandardAttributesW      @908 ; PI_GetStandardAttributesW
    PI_GetStandardSize             @909 ; PI_GetStandardSize
    PI_GetTermTypeId               @910 ; PI_GetTermTypeId
    PI_IsAddonInfo                 @911 ; PI_IsAddonInfo
    PI_IsBeta                      @912 ; PI_IsBeta
    PI_IsEnabled                   @913 ; PI_IsEnabled
    PI_IsFlexlmInfo                @914 ; PI_IsFlexlmInfo
    PI_IsFree                      @915 ; PI_IsFree
    PI_IsTemporary                 @916 ; PI_IsTemporary
    PI_IsTerm                      @917 ; PI_IsTerm
    PI_IsTrial                     @918 ; PI_IsTrial
    PI_IsUpdatable                 @919 ; PI_IsUpdatable
    PI_IsUpgrade                   @920 ; PI_IsUpgrade
    PI_SetCustomAttributeA         @921 ; PI_SetCustomAttributeA
    PI_SetCustomAttributeW         @922 ; PI_SetCustomAttributeW
    PPH_ExpandPlaceholdersA        @923 ; PPH_ExpandPlaceholdersA
    PPH_ExpandPlaceholdersW        @924 ; PPH_ExpandPlaceholdersW
    PR_ResolveFromSerialA          @925 ; PR_ResolveFromSerialA
    PR_ResolveFromSerialW          @926 ; PR_ResolveFromSerialW
    PR_ResolveFromSlipA            @927 ; PR_ResolveFromSlipA
    PR_ResolveFromSlipW            @928 ; PR_ResolveFromSlipW
    SLM_Cancel                     @929 ; SLM_Cancel
    SLM_CompareProducts            @930 ; SLM_CompareProducts
    SLM_ConfigSilentActivation     @931 ; SLM_ConfigSilentActivation
    SLM_CreateCustomLockManager2A  @932 ; SLM_CreateCustomLockManager2A
    SLM_CreateCustomLockManager2W  @933 ; SLM_CreateCustomLockManager2W
    SLM_CreateCustomLockManagerA   @934 ; SLM_CreateCustomLockManagerA
    SLM_CreateCustomLockManagerW   @935 ; SLM_CreateCustomLockManagerW
    SLM_CreateManager2A            @936 ; SLM_CreateManager2A
    SLM_CreateManager2W            @937 ; SLM_CreateManager2W
    SLM_CreateManager3A            @938 ; SLM_CreateManager3A
    SLM_CreateManager3W            @939 ; SLM_CreateManager3W
    SLM_CreateManager4A            @940 ; SLM_CreateManager4A
    SLM_CreateManager4W            @941 ; SLM_CreateManager4W
    SLM_CreateManagerA             @942 ; SLM_CreateManagerA
    SLM_CreateManagerW             @943 ; SLM_CreateManagerW
    SLM_GetAddOnProductInfoSet     @944 ; SLM_GetAddOnProductInfoSet
    SLM_GetAddOnProductInfoSetSize @945 ; SLM_GetAddOnProductInfoSetSize
    SLM_GetCertIDSlipSetA          @946 ; SLM_GetCertIDSlipSetA
    SLM_GetCertIDSlipSetW          @947 ; SLM_GetCertIDSlipSetW
    SLM_GetGraceLaunchAttemptCount @948 ; SLM_GetGraceLaunchAttemptCount
    SLM_GetLicenseFileNameA        @949 ; SLM_GetLicenseFileNameA
    SLM_GetLicenseFileNameW        @950 ; SLM_GetLicenseFileNameW
    SLM_GetLockA                   @951 ; SLM_GetLockA
    SLM_GetLockType                @952 ; SLM_GetLockType
    SLM_GetLockW                   @953 ; SLM_GetLockW
    SLM_GetMaxGraceLaunchCount     @954 ; SLM_GetMaxGraceLaunchCount
    SLM_GetProductInfo             @955 ; SLM_GetProductInfo
    SLM_GetProductInfoAndMyToolsStubSet @956 ; SLM_GetProductInfoAndMyToolsStubSet
    SLM_GetProductInfoAndMyToolsStubSetSize @957 ; SLM_GetProductInfoAndMyToolsStubSetSize
    SLM_GetProductInfoSet          @958 ; SLM_GetProductInfoSet
    SLM_GetProductInfoSetSize      @959 ; SLM_GetProductInfoSetSize
    SLM_GetRegistrationKey         @960 ; SLM_GetRegistrationKey
    SLM_GetSerialSetA              @961 ; SLM_GetSerialSetA
    SLM_GetSerialSetSize           @962 ; SLM_GetSerialSetSize
    SLM_GetSerialSetW              @963 ; SLM_GetSerialSetW
    SLM_GetSessionId               @964 ; SLM_GetSessionId
    SLM_GetSystemIdA               @965 ; SLM_GetSystemIdA
    SLM_GetSystemIdW               @966 ; SLM_GetSystemIdW
    SLM_GetTempProductInfoSet      @967 ; SLM_GetTempProductInfoSet
    SLM_GetTempProductInfoSetSize  @968 ; SLM_GetTempProductInfoSetSize
    SLM_ImportAddOnSlipA           @969 ; SLM_ImportAddOnSlipA
    SLM_ImportAddOnSlipW           @970 ; SLM_ImportAddOnSlipW
    SLM_ImportAllAddOnSlips        @971 ; SLM_ImportAllAddOnSlips
    SLM_ImportSlipA                @972 ; SLM_ImportSlipA
    SLM_ImportSlipAndCopyA         @973 ; SLM_ImportSlipAndCopyA
    SLM_ImportSlipAndCopyW         @974 ; SLM_ImportSlipAndCopyW
    SLM_ImportSlipStringA          @975 ; SLM_ImportSlipStringA
    SLM_ImportSlipStringW          @976 ; SLM_ImportSlipStringW
    SLM_ImportSlipW                @977 ; SLM_ImportSlipW
    SLM_IsActive                   @978 ; SLM_IsActive
    SLM_IsAddOnSlipA               @979 ; SLM_IsAddOnSlipA
    SLM_IsAddOnSlipW               @980 ; SLM_IsAddOnSlipW
    SLM_IsInstantOn                @981 ; SLM_IsInstantOn
    SLM_IsRegisteredA              @982 ; SLM_IsRegisteredA
    SLM_IsRegisteredW              @983 ; SLM_IsRegisteredW
    SLM_LoadLicenseSelectionConfigA @984 ; SLM_LoadLicenseSelectionConfigA
    SLM_LoadLicenseSelectionConfigW @985 ; SLM_LoadLicenseSelectionConfigW
    SLM_MultipleSelectableLicenses @986 ; SLM_MultipleSelectableLicenses
    SLM_PutSerialA                 @987 ; SLM_PutSerialA
    SLM_PutSerialW                 @988 ; SLM_PutSerialW
    SLM_RefreshLicenseFilters      @989 ; SLM_RefreshLicenseFilters
    SLM_RefreshTimers              @990 ; SLM_RefreshTimers
    SLM_ReleaseManager             @991 ; SLM_ReleaseManager
    SLM_RemoveProductInfo          @992 ; SLM_RemoveProductInfo
    SLM_RemoveSerialA              @993 ; SLM_RemoveSerialA
    SLM_RemoveSerialW              @994 ; SLM_RemoveSerialW
    SLM_RemoveSlipA                @995 ; SLM_RemoveSlipA
    SLM_RemoveSlipW                @996 ; SLM_RemoveSlipW
    SLM_ResetGraceLaunchAttemptCount @997 ; SLM_ResetGraceLaunchAttemptCount
    SLM_ShouldLaunchLicenseSelection @998 ; SLM_ShouldLaunchLicenseSelection
    SLM_Synch                      @999 ; SLM_Synch
    SLM_UpdateGraceLaunchAttemptCount @1000; SLM_UpdateGraceLaunchAttemptCount
    SLM_WriteSlipToFileA           @1001; SLM_WriteSlipToFileA
    SLM_WriteSlipToFileW           @1002; SLM_WriteSlipToFileW
    UTIL_GetCoHostNameA            @1003; UTIL_GetCoHostNameA
    UTIL_GetCoHostNameW            @1004; UTIL_GetCoHostNameW
    _NL_Status                     @1005; _NL_Status
